ARM GAS  C:\Users\Hesham\AppData\Local\Temp\cczvnjzy.s 			page 1


   1              		.syntax unified
   2              		.cpu cortex-m3
   3              		.fpu softvfp
   4              		.eabi_attribute 20, 1
   5              		.eabi_attribute 21, 1
   6              		.eabi_attribute 23, 3
   7              		.eabi_attribute 24, 1
   8              		.eabi_attribute 25, 1
   9              		.eabi_attribute 26, 1
  10              		.eabi_attribute 30, 1
  11              		.eabi_attribute 34, 1
  12              		.eabi_attribute 18, 4
  13              		.thumb
  14              		.file	"HTS221TempHumiditySensor.c"
  15              		.text
  16              	.Ltext0:
  17              		.cfi_sections	.debug_frame
  18              		.section	.text.I2C_HTS221,"ax",%progbits
  19              		.align	2
  20              		.global	I2C_HTS221
  21              		.thumb
  22              		.thumb_func
  23              		.type	I2C_HTS221, %function
  24              	I2C_HTS221:
  25              	.LFB63:
  26              		.file 1 "HTS221TempHumiditySensor.c"
   1:HTS221TempHumiditySensor.c **** /*
   2:HTS221TempHumiditySensor.c ****  * HTS221TempHumidity.cpp
   3:HTS221TempHumiditySensor.c ****  *
   4:HTS221TempHumiditySensor.c ****  *  Created on: Mar 12, 2017
   5:HTS221TempHumiditySensor.c ****  *      Author: Hesham
   6:HTS221TempHumiditySensor.c ****  */
   7:HTS221TempHumiditySensor.c **** 
   8:HTS221TempHumiditySensor.c **** #include "HTS221TempHumiditySensor.h"
   9:HTS221TempHumiditySensor.c **** 
  10:HTS221TempHumiditySensor.c **** //Temperature and Humidity Sensor
  11:HTS221TempHumiditySensor.c **** 
  12:HTS221TempHumiditySensor.c **** uint8 I2C_HTS221(uint8 Ref_Address){
  27              		.loc 1 12 0
  28              		.cfi_startproc
  29              		@ args = 0, pretend = 0, frame = 8
  30              		@ frame_needed = 0, uses_anonymous_args = 0
  31              	.LVL0:
  32 0000 00B5     		push	{lr}
  33              		.cfi_def_cfa_offset 4
  34              		.cfi_offset 14, -4
  35 0002 83B0     		sub	sp, sp, #12
  36              		.cfi_def_cfa_offset 16
  37              	.LVL1:
  13:HTS221TempHumiditySensor.c **** 
  14:HTS221TempHumiditySensor.c ****     uint8 WR_Status = 0;
  15:HTS221TempHumiditySensor.c ****     uint8 RD_Status = 0;
  16:HTS221TempHumiditySensor.c ****     uint8 WR_Buffer[HTS221_WR_BUFFER_SIZE];
  17:HTS221TempHumiditySensor.c ****     uint8 RD_Buffer[HTS221_RD_BUFFER_SIZE];
  18:HTS221TempHumiditySensor.c **** 
  19:HTS221TempHumiditySensor.c ****     WR_Buffer[0] = Ref_Address;
  38              		.loc 1 19 0
ARM GAS  C:\Users\Hesham\AppData\Local\Temp\cczvnjzy.s 			page 2


  39 0004 8DF80400 		strb	r0, [sp, #4]
  40              	.LVL2:
  41              	.L2:
  20:HTS221TempHumiditySensor.c **** 
  21:HTS221TempHumiditySensor.c ****             do
  22:HTS221TempHumiditySensor.c ****         {
  23:HTS221TempHumiditySensor.c ****             /* The syntax below automatically writes a buffer of data to a slave
  24:HTS221TempHumiditySensor.c ****              * device from start to stop.
  25:HTS221TempHumiditySensor.c ****               */
  26:HTS221TempHumiditySensor.c ****             WR_Status = I2C_1_MasterWriteBuf(I2C_HTS221_Address, (uint8 *)WR_Buffer,
  42              		.loc 1 26 0 discriminator 1
  43 0008 5F20     		movs	r0, #95
  44 000a 01A9     		add	r1, sp, #4
  45 000c 0122     		movs	r2, #1
  46 000e 0023     		movs	r3, #0
  47 0010 FFF7FEFF 		bl	I2C_1_MasterWriteBuf
  48              	.LVL3:
  27:HTS221TempHumiditySensor.c ****                                         HTS221_WR_BUFFER_SIZE, I2C_1_MODE_COMPLETE_XFER);
  28:HTS221TempHumiditySensor.c ****         }
  29:HTS221TempHumiditySensor.c ****         while (WR_Status != I2C_1_MSTR_NO_ERROR);
  49              		.loc 1 29 0 discriminator 1
  50 0014 0028     		cmp	r0, #0
  51 0016 F7D1     		bne	.L2
  52              	.LVL4:
  53              	.L3:
  30:HTS221TempHumiditySensor.c **** 
  31:HTS221TempHumiditySensor.c **** 
  32:HTS221TempHumiditySensor.c **** 
  33:HTS221TempHumiditySensor.c ****         /* Wait for the data transfer to complete */
  34:HTS221TempHumiditySensor.c ****         while(I2C_1_MasterStatus() & I2C_1_MSTAT_XFER_INP);
  54              		.loc 1 34 0 discriminator 1
  55 0018 FFF7FEFF 		bl	I2C_1_MasterStatus
  56              	.LVL5:
  57 001c 10F0040F 		tst	r0, #4
  58 0020 FAD1     		bne	.L3
  35:HTS221TempHumiditySensor.c **** 
  36:HTS221TempHumiditySensor.c ****         WR_Status = I2C_1_MasterClearStatus();
  59              		.loc 1 36 0
  60 0022 FFF7FEFF 		bl	I2C_1_MasterClearStatus
  61              	.LVL6:
  37:HTS221TempHumiditySensor.c **** 
  38:HTS221TempHumiditySensor.c ****         RD_Status = I2C_1_MasterReadBuf(I2C_HTS221_Address, (uint8 *)RD_Buffer,
  62              		.loc 1 38 0
  63 0026 5F20     		movs	r0, #95
  64 0028 6946     		mov	r1, sp
  65 002a 0122     		movs	r2, #1
  66 002c 0023     		movs	r3, #0
  67 002e FFF7FEFF 		bl	I2C_1_MasterReadBuf
  68              	.LVL7:
  69              	.L4:
  39:HTS221TempHumiditySensor.c ****                     HTS221_RD_BUFFER_SIZE, I2C_1_MODE_COMPLETE_XFER);
  40:HTS221TempHumiditySensor.c **** 
  41:HTS221TempHumiditySensor.c ****         while (RD_Status != I2C_1_MSTR_NO_ERROR);
  70              		.loc 1 41 0 discriminator 1
  71 0032 0028     		cmp	r0, #0
  72 0034 FDD1     		bne	.L4
  73              	.LVL8:
ARM GAS  C:\Users\Hesham\AppData\Local\Temp\cczvnjzy.s 			page 3


  74              	.L5:
  42:HTS221TempHumiditySensor.c **** 
  43:HTS221TempHumiditySensor.c ****         /* Wait for the data transfer to complete */
  44:HTS221TempHumiditySensor.c ****         while(I2C_1_MasterStatus() & I2C_1_MSTAT_XFER_INP);
  75              		.loc 1 44 0 discriminator 1
  76 0036 FFF7FEFF 		bl	I2C_1_MasterStatus
  77              	.LVL9:
  78 003a 10F0040F 		tst	r0, #4
  79 003e FAD1     		bne	.L5
  45:HTS221TempHumiditySensor.c **** 
  46:HTS221TempHumiditySensor.c ****         RD_Status = I2C_1_MasterClearStatus();
  80              		.loc 1 46 0
  81 0040 FFF7FEFF 		bl	I2C_1_MasterClearStatus
  82              	.LVL10:
  47:HTS221TempHumiditySensor.c **** 
  48:HTS221TempHumiditySensor.c ****         return RD_Buffer[0];
  49:HTS221TempHumiditySensor.c **** }
  83              		.loc 1 49 0
  84 0044 9DF80000 		ldrb	r0, [sp]	@ zero_extendqisi2
  85 0048 03B0     		add	sp, sp, #12
  86              		.cfi_def_cfa_offset 4
  87              		@ sp needed
  88 004a 5DF804FB 		ldr	pc, [sp], #4
  89              		.cfi_endproc
  90              	.LFE63:
  91              		.size	I2C_HTS221, .-I2C_HTS221
  92 004e 00BF     		.section	.text.Init_HTS221,"ax",%progbits
  93              		.align	2
  94              		.global	Init_HTS221
  95              		.thumb
  96              		.thumb_func
  97              		.type	Init_HTS221, %function
  98              	Init_HTS221:
  99              	.LFB64:
  50:HTS221TempHumiditySensor.c **** 
  51:HTS221TempHumiditySensor.c **** void Init_HTS221(){
 100              		.loc 1 51 0
 101              		.cfi_startproc
 102              		@ args = 0, pretend = 0, frame = 8
 103              		@ frame_needed = 0, uses_anonymous_args = 0
 104 0000 00B5     		push	{lr}
 105              		.cfi_def_cfa_offset 4
 106              		.cfi_offset 14, -4
 107 0002 83B0     		sub	sp, sp, #12
 108              		.cfi_def_cfa_offset 16
 109              	.LVL11:
  52:HTS221TempHumiditySensor.c **** 
  53:HTS221TempHumiditySensor.c ****     uint8 WR_Status = 0;
  54:HTS221TempHumiditySensor.c ****     uint8 RD_Status = 0;
  55:HTS221TempHumiditySensor.c ****     uint8 WR_Buffer[Init_HTS221_WR_BUFFER_SIZE];
  56:HTS221TempHumiditySensor.c **** 
  57:HTS221TempHumiditySensor.c ****     WR_Buffer[0] = HTS221_CTRL_REG1;
 110              		.loc 1 57 0
 111 0004 2023     		movs	r3, #32
 112 0006 8DF80430 		strb	r3, [sp, #4]
  58:HTS221TempHumiditySensor.c ****     WR_Buffer[1] = HTS221_TEMP_EN | HTS221_OM_UH_PERF | HTS221_Fast_ODR | HTS221_ST_EN;
 113              		.loc 1 58 0
ARM GAS  C:\Users\Hesham\AppData\Local\Temp\cczvnjzy.s 			page 4


 114 000a E323     		movs	r3, #227
 115 000c 8DF80530 		strb	r3, [sp, #5]
 116              	.LVL12:
 117              	.L8:
  59:HTS221TempHumiditySensor.c **** 
  60:HTS221TempHumiditySensor.c ****             do
  61:HTS221TempHumiditySensor.c ****         {
  62:HTS221TempHumiditySensor.c ****             /* The syntax below automatically writes a buffer of data to a slave
  63:HTS221TempHumiditySensor.c ****              * device from start to stop.
  64:HTS221TempHumiditySensor.c ****               */
  65:HTS221TempHumiditySensor.c ****             WR_Status = I2C_1_MasterWriteBuf(I2C_HTS221_Address, (uint8 *)WR_Buffer,
 118              		.loc 1 65 0 discriminator 1
 119 0010 5F20     		movs	r0, #95
 120 0012 01A9     		add	r1, sp, #4
 121 0014 0222     		movs	r2, #2
 122 0016 0023     		movs	r3, #0
 123 0018 FFF7FEFF 		bl	I2C_1_MasterWriteBuf
 124              	.LVL13:
  66:HTS221TempHumiditySensor.c ****                                         Init_HTS221_WR_BUFFER_SIZE, I2C_1_MODE_COMPLETE_XFER);
  67:HTS221TempHumiditySensor.c ****         }
  68:HTS221TempHumiditySensor.c ****         while (WR_Status != I2C_1_MSTR_NO_ERROR);
 125              		.loc 1 68 0 discriminator 1
 126 001c 0028     		cmp	r0, #0
 127 001e F7D1     		bne	.L8
 128              	.LVL14:
 129              	.L9:
  69:HTS221TempHumiditySensor.c **** 
  70:HTS221TempHumiditySensor.c **** 
  71:HTS221TempHumiditySensor.c **** 
  72:HTS221TempHumiditySensor.c ****         /* Wait for the data transfer to complete */
  73:HTS221TempHumiditySensor.c ****         while(I2C_1_MasterStatus() & I2C_1_MSTAT_XFER_INP);
 130              		.loc 1 73 0 discriminator 1
 131 0020 FFF7FEFF 		bl	I2C_1_MasterStatus
 132              	.LVL15:
 133 0024 10F0040F 		tst	r0, #4
 134 0028 FAD1     		bne	.L9
  74:HTS221TempHumiditySensor.c **** 
  75:HTS221TempHumiditySensor.c ****         WR_Status = I2C_1_MasterClearStatus();
 135              		.loc 1 75 0
 136 002a FFF7FEFF 		bl	I2C_1_MasterClearStatus
 137              	.LVL16:
  76:HTS221TempHumiditySensor.c **** 
  77:HTS221TempHumiditySensor.c **** }
 138              		.loc 1 77 0
 139 002e 03B0     		add	sp, sp, #12
 140              		.cfi_def_cfa_offset 4
 141              		@ sp needed
 142 0030 5DF804FB 		ldr	pc, [sp], #4
 143              		.cfi_endproc
 144              	.LFE64:
 145              		.size	Init_HTS221, .-Init_HTS221
 146              		.global	__aeabi_i2d
 147              		.global	__aeabi_dmul
 148              		.global	__aeabi_dsub
 149              		.global	__aeabi_ddiv
 150              		.global	__aeabi_dadd
 151              		.global	__aeabi_d2uiz
ARM GAS  C:\Users\Hesham\AppData\Local\Temp\cczvnjzy.s 			page 5


 152              		.section	.text.HTS221_Read_Temperature,"ax",%progbits
 153              		.align	2
 154              		.global	HTS221_Read_Temperature
 155              		.thumb
 156              		.thumb_func
 157              		.type	HTS221_Read_Temperature, %function
 158              	HTS221_Read_Temperature:
 159              	.LFB65:
  78:HTS221TempHumiditySensor.c **** 
  79:HTS221TempHumiditySensor.c **** //Read Temperature
  80:HTS221TempHumiditySensor.c **** 
  81:HTS221TempHumiditySensor.c **** uint8 HTS221_Read_Temperature(){
 160              		.loc 1 81 0
 161              		.cfi_startproc
 162              		@ args = 0, pretend = 0, frame = 0
 163              		@ frame_needed = 0, uses_anonymous_args = 0
 164 0000 2DE9F047 		push	{r4, r5, r6, r7, r8, r9, r10, lr}
 165              		.cfi_def_cfa_offset 32
 166              		.cfi_offset 4, -32
 167              		.cfi_offset 5, -28
 168              		.cfi_offset 6, -24
 169              		.cfi_offset 7, -20
 170              		.cfi_offset 8, -16
 171              		.cfi_offset 9, -12
 172              		.cfi_offset 10, -8
 173              		.cfi_offset 14, -4
  82:HTS221TempHumiditySensor.c **** 
  83:HTS221TempHumiditySensor.c ****         int16 T0_OUT = (int16) I2C_HTS221(HTS221_T0_OUT_0) | (int16)(I2C_HTS221(HTS221_T0_OUT_1) <<
 174              		.loc 1 83 0
 175 0004 3C20     		movs	r0, #60
 176 0006 FFF7FEFF 		bl	I2C_HTS221
 177              	.LVL17:
 178 000a 0446     		mov	r4, r0
 179 000c 3D20     		movs	r0, #61
 180 000e FFF7FEFF 		bl	I2C_HTS221
 181              	.LVL18:
 182 0012 0002     		lsls	r0, r0, #8
 183 0014 80B2     		uxth	r0, r0
 184 0016 0443     		orrs	r4, r4, r0
 185 0018 A4B2     		uxth	r4, r4
 186              	.LVL19:
  84:HTS221TempHumiditySensor.c **** 
  85:HTS221TempHumiditySensor.c ****         int16 T1_OUT = (int16) I2C_HTS221(HTS221_T1_OUT_0) | (int16)(I2C_HTS221(HTS221_T1_OUT_1) <<
 187              		.loc 1 85 0
 188 001a 3E20     		movs	r0, #62
 189 001c FFF7FEFF 		bl	I2C_HTS221
 190              	.LVL20:
 191 0020 8246     		mov	r10, r0
 192 0022 3F20     		movs	r0, #63
 193 0024 FFF7FEFF 		bl	I2C_HTS221
 194              	.LVL21:
 195 0028 0002     		lsls	r0, r0, #8
 196 002a 80B2     		uxth	r0, r0
 197 002c 4AEA000A 		orr	r10, r10, r0
 198 0030 1FFA8AFA 		uxth	r10, r10
 199              	.LVL22:
  86:HTS221TempHumiditySensor.c **** 
ARM GAS  C:\Users\Hesham\AppData\Local\Temp\cczvnjzy.s 			page 6


  87:HTS221TempHumiditySensor.c ****         int16 T_OUT = (int16) I2C_HTS221(HTS221_TEMP_OUT_L) | (int16)(I2C_HTS221(HTS221_TEMP_OUT_H)
 200              		.loc 1 87 0
 201 0034 2A20     		movs	r0, #42
 202 0036 FFF7FEFF 		bl	I2C_HTS221
 203              	.LVL23:
 204 003a 0546     		mov	r5, r0
 205 003c 2B20     		movs	r0, #43
 206 003e FFF7FEFF 		bl	I2C_HTS221
 207              	.LVL24:
 208 0042 0002     		lsls	r0, r0, #8
 209 0044 80B2     		uxth	r0, r0
 210 0046 0543     		orrs	r5, r5, r0
 211 0048 ADB2     		uxth	r5, r5
 212              	.LVL25:
  88:HTS221TempHumiditySensor.c **** 
  89:HTS221TempHumiditySensor.c ****         uint16 MSB = I2C_HTS221(HTS221_T1_T0_MSB);
 213              		.loc 1 89 0
 214 004a 3520     		movs	r0, #53
 215 004c FFF7FEFF 		bl	I2C_HTS221
 216              	.LVL26:
  90:HTS221TempHumiditySensor.c **** 
  91:HTS221TempHumiditySensor.c ****         uint16 MSB_T0 = MSB & 0x03;
 217              		.loc 1 91 0
 218 0050 00F00306 		and	r6, r0, #3
 219              	.LVL27:
  92:HTS221TempHumiditySensor.c **** 
  93:HTS221TempHumiditySensor.c ****         uint16 MSB_T1 = MSB & 0x0C;
 220              		.loc 1 93 0
 221 0054 00F00C08 		and	r8, r0, #12
 222              	.LVL28:
  94:HTS221TempHumiditySensor.c **** 
  95:HTS221TempHumiditySensor.c ****         uint8 T0_DegC_x8 =  I2C_HTS221(HTS221_T0_degC_x8);
 223              		.loc 1 95 0
 224 0058 3220     		movs	r0, #50
 225              	.LVL29:
 226 005a FFF7FEFF 		bl	I2C_HTS221
 227              	.LVL30:
  96:HTS221TempHumiditySensor.c **** 
  97:HTS221TempHumiditySensor.c ****         double T0_DegC = (T0_DegC_x8 | (MSB_T0 << 8))/8.0;
 228              		.loc 1 97 0
 229 005e 40EA0620 		orr	r0, r0, r6, lsl #8
 230              	.LVL31:
 231 0062 FFF7FEFF 		bl	__aeabi_i2d
 232              	.LVL32:
 233 0066 0022     		movs	r2, #0
 234 0068 4FF07F53 		mov	r3, #1069547520
 235 006c FFF7FEFF 		bl	__aeabi_dmul
 236              	.LVL33:
 237 0070 0646     		mov	r6, r0
 238              	.LVL34:
 239 0072 0F46     		mov	r7, r1
 240              	.LVL35:
  98:HTS221TempHumiditySensor.c **** 
  99:HTS221TempHumiditySensor.c ****         uint8 T1_DegC_x8 =  I2C_HTS221(HTS221_T1_degC_x8);
 241              		.loc 1 99 0
 242 0074 3320     		movs	r0, #51
 243 0076 FFF7FEFF 		bl	I2C_HTS221
ARM GAS  C:\Users\Hesham\AppData\Local\Temp\cczvnjzy.s 			page 7


 244              	.LVL36:
 100:HTS221TempHumiditySensor.c **** 
 101:HTS221TempHumiditySensor.c ****         double T1_DegC = (T1_DegC_x8 | (MSB_T1 << 6))/8.0;
 245              		.loc 1 101 0
 246 007a 40EA8810 		orr	r0, r0, r8, lsl #6
 247              	.LVL37:
 248 007e FFF7FEFF 		bl	__aeabi_i2d
 249              	.LVL38:
 250 0082 0022     		movs	r2, #0
 251 0084 4FF07F53 		mov	r3, #1069547520
 252 0088 FFF7FEFF 		bl	__aeabi_dmul
 253              	.LVL39:
 102:HTS221TempHumiditySensor.c **** 
 103:HTS221TempHumiditySensor.c ****         double Diff_DegC = T1_DegC - T0_DegC;
 254              		.loc 1 103 0
 255 008c 3246     		mov	r2, r6
 256 008e 3B46     		mov	r3, r7
 257 0090 FFF7FEFF 		bl	__aeabi_dsub
 258              	.LVL40:
 259 0094 8046     		mov	r8, r0
 260              	.LVL41:
 261 0096 8946     		mov	r9, r1
 262              	.LVL42:
 104:HTS221TempHumiditySensor.c **** 
 105:HTS221TempHumiditySensor.c ****         double Diff_OUT = T1_OUT - T0_OUT;
 263              		.loc 1 105 0
 264 0098 24B2     		sxth	r4, r4
 265 009a 0FFA8AF0 		sxth	r0, r10
 266 009e 001B     		subs	r0, r0, r4
 267 00a0 FFF7FEFF 		bl	__aeabi_i2d
 268              	.LVL43:
 269 00a4 0246     		mov	r2, r0
 270 00a6 0B46     		mov	r3, r1
 271              	.LVL44:
 106:HTS221TempHumiditySensor.c **** 
 107:HTS221TempHumiditySensor.c ****         double slope =(double) (Diff_DegC/Diff_OUT);
 272              		.loc 1 107 0
 273 00a8 4046     		mov	r0, r8
 274 00aa 4946     		mov	r1, r9
 275 00ac FFF7FEFF 		bl	__aeabi_ddiv
 276              	.LVL45:
 277 00b0 8046     		mov	r8, r0
 278              	.LVL46:
 279 00b2 8946     		mov	r9, r1
 280              	.LVL47:
 108:HTS221TempHumiditySensor.c **** 
 109:HTS221TempHumiditySensor.c ****         return (uint8)((slope*(T_OUT - T0_OUT)) + T0_DegC);
 281              		.loc 1 109 0
 282 00b4 28B2     		sxth	r0, r5
 283 00b6 001B     		subs	r0, r0, r4
 284 00b8 FFF7FEFF 		bl	__aeabi_i2d
 285              	.LVL48:
 286 00bc 4246     		mov	r2, r8
 287 00be 4B46     		mov	r3, r9
 288 00c0 FFF7FEFF 		bl	__aeabi_dmul
 289              	.LVL49:
 290 00c4 3246     		mov	r2, r6
ARM GAS  C:\Users\Hesham\AppData\Local\Temp\cczvnjzy.s 			page 8


 291 00c6 3B46     		mov	r3, r7
 292 00c8 FFF7FEFF 		bl	__aeabi_dadd
 293              	.LVL50:
 294 00cc FFF7FEFF 		bl	__aeabi_d2uiz
 295              	.LVL51:
 110:HTS221TempHumiditySensor.c **** 
 111:HTS221TempHumiditySensor.c **** 
 112:HTS221TempHumiditySensor.c **** }
 296              		.loc 1 112 0
 297 00d0 C0B2     		uxtb	r0, r0
 298 00d2 BDE8F087 		pop	{r4, r5, r6, r7, r8, r9, r10, pc}
 299              		.cfi_endproc
 300              	.LFE65:
 301              		.size	HTS221_Read_Temperature, .-HTS221_Read_Temperature
 302 00d6 00BF     		.section	.text.HTS221_Read_Humidity,"ax",%progbits
 303              		.align	2
 304              		.global	HTS221_Read_Humidity
 305              		.thumb
 306              		.thumb_func
 307              		.type	HTS221_Read_Humidity, %function
 308              	HTS221_Read_Humidity:
 309              	.LFB66:
 113:HTS221TempHumiditySensor.c **** 
 114:HTS221TempHumiditySensor.c **** //Read Humidity
 115:HTS221TempHumiditySensor.c **** 
 116:HTS221TempHumiditySensor.c **** uint16 HTS221_Read_Humidity(){
 310              		.loc 1 116 0
 311              		.cfi_startproc
 312              		@ args = 0, pretend = 0, frame = 0
 313              		@ frame_needed = 0, uses_anonymous_args = 0
 314 0000 2DE9F047 		push	{r4, r5, r6, r7, r8, r9, r10, lr}
 315              		.cfi_def_cfa_offset 32
 316              		.cfi_offset 4, -32
 317              		.cfi_offset 5, -28
 318              		.cfi_offset 6, -24
 319              		.cfi_offset 7, -20
 320              		.cfi_offset 8, -16
 321              		.cfi_offset 9, -12
 322              		.cfi_offset 10, -8
 323              		.cfi_offset 14, -4
 117:HTS221TempHumiditySensor.c **** 
 118:HTS221TempHumiditySensor.c **** 
 119:HTS221TempHumiditySensor.c ****     int16 H0_T0_OUT = (int16)I2C_HTS221(HTS221_H0_OUT_0) | (int16)(I2C_HTS221(HTS221_H0_OUT_1)<<8) 
 324              		.loc 1 119 0
 325 0004 3620     		movs	r0, #54
 326 0006 FFF7FEFF 		bl	I2C_HTS221
 327              	.LVL52:
 328 000a 0446     		mov	r4, r0
 329 000c 3720     		movs	r0, #55
 330 000e FFF7FEFF 		bl	I2C_HTS221
 331              	.LVL53:
 332 0012 0002     		lsls	r0, r0, #8
 333 0014 80B2     		uxth	r0, r0
 334 0016 0443     		orrs	r4, r4, r0
 335 0018 A4B2     		uxth	r4, r4
 336              	.LVL54:
 120:HTS221TempHumiditySensor.c **** 
ARM GAS  C:\Users\Hesham\AppData\Local\Temp\cczvnjzy.s 			page 9


 121:HTS221TempHumiditySensor.c ****     int16 H1_T0_OUT = (int16)I2C_HTS221(HTS221_H1_OUT_0) | (int16)(I2C_HTS221(HTS221_H1_OUT_1)<<8) 
 337              		.loc 1 121 0
 338 001a 3A20     		movs	r0, #58
 339 001c FFF7FEFF 		bl	I2C_HTS221
 340              	.LVL55:
 341 0020 8246     		mov	r10, r0
 342 0022 3B20     		movs	r0, #59
 343 0024 FFF7FEFF 		bl	I2C_HTS221
 344              	.LVL56:
 345 0028 0002     		lsls	r0, r0, #8
 346 002a 80B2     		uxth	r0, r0
 347 002c 4AEA000A 		orr	r10, r10, r0
 348 0030 1FFA8AFA 		uxth	r10, r10
 349              	.LVL57:
 122:HTS221TempHumiditySensor.c **** 
 123:HTS221TempHumiditySensor.c ****     int16 H_T_OUT = (int16)I2C_HTS221(HTS221_HUMIDITY_OUT_L) | (int16)(I2C_HTS221(HTS221_HUMIDITY_O
 350              		.loc 1 123 0
 351 0034 2820     		movs	r0, #40
 352 0036 FFF7FEFF 		bl	I2C_HTS221
 353              	.LVL58:
 354 003a 0546     		mov	r5, r0
 355 003c 2920     		movs	r0, #41
 356 003e FFF7FEFF 		bl	I2C_HTS221
 357              	.LVL59:
 358 0042 0002     		lsls	r0, r0, #8
 359 0044 80B2     		uxth	r0, r0
 360 0046 0543     		orrs	r5, r5, r0
 361 0048 ADB2     		uxth	r5, r5
 362              	.LVL60:
 124:HTS221TempHumiditySensor.c **** 
 125:HTS221TempHumiditySensor.c ****     uint8 H0_rH_x2 = I2C_HTS221(HTS221_H0_rH_x2);
 363              		.loc 1 125 0
 364 004a 3020     		movs	r0, #48
 365 004c FFF7FEFF 		bl	I2C_HTS221
 366              	.LVL61:
 126:HTS221TempHumiditySensor.c **** 
 127:HTS221TempHumiditySensor.c ****     double H0_rH = H0_rH_x2/2;
 367              		.loc 1 127 0
 368 0050 C0F34700 		ubfx	r0, r0, #1, #8
 369              	.LVL62:
 370 0054 FFF7FEFF 		bl	__aeabi_i2d
 371              	.LVL63:
 372 0058 0646     		mov	r6, r0
 373 005a 0F46     		mov	r7, r1
 374              	.LVL64:
 128:HTS221TempHumiditySensor.c **** 
 129:HTS221TempHumiditySensor.c ****     uint8 H1_rH_x2 = I2C_HTS221(HTS221_H1_rH_x2);
 375              		.loc 1 129 0
 376 005c 3120     		movs	r0, #49
 377 005e FFF7FEFF 		bl	I2C_HTS221
 378              	.LVL65:
 130:HTS221TempHumiditySensor.c **** 
 131:HTS221TempHumiditySensor.c ****     double H1_rH = H1_rH_x2/2;
 379              		.loc 1 131 0
 380 0062 C0F34700 		ubfx	r0, r0, #1, #8
 381              	.LVL66:
 382 0066 FFF7FEFF 		bl	__aeabi_i2d
ARM GAS  C:\Users\Hesham\AppData\Local\Temp\cczvnjzy.s 			page 10


 383              	.LVL67:
 132:HTS221TempHumiditySensor.c **** 
 133:HTS221TempHumiditySensor.c ****     double Diff_H0_H1_rH = H1_rH - H0_rH;
 384              		.loc 1 133 0
 385 006a 3246     		mov	r2, r6
 386 006c 3B46     		mov	r3, r7
 387 006e FFF7FEFF 		bl	__aeabi_dsub
 388              	.LVL68:
 389 0072 8046     		mov	r8, r0
 390 0074 8946     		mov	r9, r1
 391              	.LVL69:
 134:HTS221TempHumiditySensor.c **** 
 135:HTS221TempHumiditySensor.c ****     double Diff_H0_H1_OUT = H1_T0_OUT - H0_T0_OUT;
 392              		.loc 1 135 0
 393 0076 24B2     		sxth	r4, r4
 394 0078 0FFA8AF0 		sxth	r0, r10
 395 007c 001B     		subs	r0, r0, r4
 396 007e FFF7FEFF 		bl	__aeabi_i2d
 397              	.LVL70:
 398 0082 0246     		mov	r2, r0
 399 0084 0B46     		mov	r3, r1
 400              	.LVL71:
 136:HTS221TempHumiditySensor.c **** 
 137:HTS221TempHumiditySensor.c ****     double slope = Diff_H0_H1_rH/Diff_H0_H1_OUT;
 401              		.loc 1 137 0
 402 0086 4046     		mov	r0, r8
 403 0088 4946     		mov	r1, r9
 404 008a FFF7FEFF 		bl	__aeabi_ddiv
 405              	.LVL72:
 406 008e 8046     		mov	r8, r0
 407              	.LVL73:
 408 0090 8946     		mov	r9, r1
 409              	.LVL74:
 138:HTS221TempHumiditySensor.c **** 
 139:HTS221TempHumiditySensor.c ****     return (slope)*(H_T_OUT-H0_T0_OUT)+H0_rH;
 410              		.loc 1 139 0
 411 0092 28B2     		sxth	r0, r5
 412 0094 001B     		subs	r0, r0, r4
 413 0096 FFF7FEFF 		bl	__aeabi_i2d
 414              	.LVL75:
 415 009a 4246     		mov	r2, r8
 416 009c 4B46     		mov	r3, r9
 417 009e FFF7FEFF 		bl	__aeabi_dmul
 418              	.LVL76:
 419 00a2 3246     		mov	r2, r6
 420 00a4 3B46     		mov	r3, r7
 421 00a6 FFF7FEFF 		bl	__aeabi_dadd
 422              	.LVL77:
 423 00aa FFF7FEFF 		bl	__aeabi_d2uiz
 424              	.LVL78:
 140:HTS221TempHumiditySensor.c **** 
 141:HTS221TempHumiditySensor.c **** 
 142:HTS221TempHumiditySensor.c **** }
 425              		.loc 1 142 0
 426 00ae 80B2     		uxth	r0, r0
 427 00b0 BDE8F087 		pop	{r4, r5, r6, r7, r8, r9, r10, pc}
 428              		.cfi_endproc
ARM GAS  C:\Users\Hesham\AppData\Local\Temp\cczvnjzy.s 			page 11


 429              	.LFE66:
 430              		.size	HTS221_Read_Humidity, .-HTS221_Read_Humidity
 431              		.section	.text.HTS221_Test,"ax",%progbits
 432              		.align	2
 433              		.global	HTS221_Test
 434              		.thumb
 435              		.thumb_func
 436              		.type	HTS221_Test, %function
 437              	HTS221_Test:
 438              	.LFB67:
 143:HTS221TempHumiditySensor.c **** 
 144:HTS221TempHumiditySensor.c **** //Testing HTS221
 145:HTS221TempHumiditySensor.c **** 
 146:HTS221TempHumiditySensor.c **** uint16 HTS221_Test(){
 439              		.loc 1 146 0
 440              		.cfi_startproc
 441              		@ args = 0, pretend = 0, frame = 0
 442              		@ frame_needed = 0, uses_anonymous_args = 0
 443 0000 08B5     		push	{r3, lr}
 444              		.cfi_def_cfa_offset 8
 445              		.cfi_offset 3, -8
 446              		.cfi_offset 14, -4
 147:HTS221TempHumiditySensor.c **** 
 148:HTS221TempHumiditySensor.c ****     return   I2C_HTS221(HTS221_WHO_AM_I); // should be 0xBC
 447              		.loc 1 148 0
 448 0002 0F20     		movs	r0, #15
 449 0004 FFF7FEFF 		bl	I2C_HTS221
 450              	.LVL79:
 149:HTS221TempHumiditySensor.c **** 
 150:HTS221TempHumiditySensor.c **** }
 451              		.loc 1 150 0
 452 0008 08BD     		pop	{r3, pc}
 453              		.cfi_endproc
 454              	.LFE67:
 455              		.size	HTS221_Test, .-HTS221_Test
 456 000a 00BF     		.text
 457              	.Letext0:
 458              		.file 2 "c:\\program files (x86)\\cypress\\psoc creator\\4.0\\psoc creator\\import\\gnu\\arm\\4.9.
 459              		.file 3 "c:\\program files (x86)\\cypress\\psoc creator\\4.0\\psoc creator\\import\\gnu\\arm\\4.9.
 460              		.file 4 "Generated_Source\\PSoC5/cytypes.h"
 461              		.file 5 "Generated_Source\\PSoC5/I2C_1.h"
 462              		.file 6 "Generated_Source\\PSoC5/core_cm3.h"