ARM GAS  C:\Users\Hesham\AppData\Local\Temp\ccPFFhbW.s 			page 1


   1              		.syntax unified
   2              		.cpu cortex-m3
   3              		.fpu softvfp
   4              		.eabi_attribute 20, 1
   5              		.eabi_attribute 21, 1
   6              		.eabi_attribute 23, 3
   7              		.eabi_attribute 24, 1
   8              		.eabi_attribute 25, 1
   9              		.eabi_attribute 26, 1
  10              		.eabi_attribute 30, 1
  11              		.eabi_attribute 34, 1
  12              		.eabi_attribute 18, 4
  13              		.thumb
  14              		.file	"LIS3MDLMagnitometerSensor.c"
  15              		.text
  16              	.Ltext0:
  17              		.cfi_sections	.debug_frame
  18              		.section	.text.I2C_LIS3MDL,"ax",%progbits
  19              		.align	2
  20              		.global	I2C_LIS3MDL
  21              		.thumb
  22              		.thumb_func
  23              		.type	I2C_LIS3MDL, %function
  24              	I2C_LIS3MDL:
  25              	.LFB63:
  26              		.file 1 "LIS3MDLMagnitometerSensor.c"
   1:LIS3MDLMagnitometerSensor.c **** /*
   2:LIS3MDLMagnitometerSensor.c ****  * LIS3MDLMagnitometer.c
   3:LIS3MDLMagnitometerSensor.c ****  *
   4:LIS3MDLMagnitometerSensor.c ****  *  Created on: Mar 12, 2017
   5:LIS3MDLMagnitometerSensor.c ****  *      Author: Hesham
   6:LIS3MDLMagnitometerSensor.c ****  */
   7:LIS3MDLMagnitometerSensor.c **** 
   8:LIS3MDLMagnitometerSensor.c **** #include "LIS3MDLMagnitometerSensor.h"
   9:LIS3MDLMagnitometerSensor.c **** 
  10:LIS3MDLMagnitometerSensor.c **** volatile signed short X_Abs = 0 ;
  11:LIS3MDLMagnitometerSensor.c **** 
  12:LIS3MDLMagnitometerSensor.c **** volatile signed short Y_Abs = 0 ;
  13:LIS3MDLMagnitometerSensor.c **** 
  14:LIS3MDLMagnitometerSensor.c **** volatile signed short Z_Abs = 0 ;
  15:LIS3MDLMagnitometerSensor.c **** 
  16:LIS3MDLMagnitometerSensor.c **** uint8 I2C_LIS3MDL(uint8 Ref_Address){
  27              		.loc 1 16 0
  28              		.cfi_startproc
  29              		@ args = 0, pretend = 0, frame = 8
  30              		@ frame_needed = 0, uses_anonymous_args = 0
  31              	.LVL0:
  32 0000 00B5     		push	{lr}
  33              		.cfi_def_cfa_offset 4
  34              		.cfi_offset 14, -4
  35 0002 83B0     		sub	sp, sp, #12
  36              		.cfi_def_cfa_offset 16
  37              	.LVL1:
  17:LIS3MDLMagnitometerSensor.c **** 
  18:LIS3MDLMagnitometerSensor.c ****     uint8 WR_Status = 0;
  19:LIS3MDLMagnitometerSensor.c ****     uint8 RD_Status = 0;
  20:LIS3MDLMagnitometerSensor.c ****     uint8 WR_Buffer[LIS3MDL_WR_BUFFER_SIZE];
ARM GAS  C:\Users\Hesham\AppData\Local\Temp\ccPFFhbW.s 			page 2


  21:LIS3MDLMagnitometerSensor.c ****     uint8 RD_Buffer[LIS3MDL_RD_BUFFER_SIZE];
  22:LIS3MDLMagnitometerSensor.c **** 
  23:LIS3MDLMagnitometerSensor.c ****     WR_Buffer[0] = Ref_Address;
  38              		.loc 1 23 0
  39 0004 8DF80400 		strb	r0, [sp, #4]
  40              	.LVL2:
  41              	.L2:
  24:LIS3MDLMagnitometerSensor.c **** 
  25:LIS3MDLMagnitometerSensor.c ****             do
  26:LIS3MDLMagnitometerSensor.c ****         {
  27:LIS3MDLMagnitometerSensor.c ****             /* The syntax below automatically writes a buffer of data to a slave
  28:LIS3MDLMagnitometerSensor.c ****              * device from start to stop.
  29:LIS3MDLMagnitometerSensor.c ****               */
  30:LIS3MDLMagnitometerSensor.c ****             WR_Status = I2C_1_MasterWriteBuf(I2C_LIS3MDL_Address, (uint8 *)WR_Buffer,
  42              		.loc 1 30 0 discriminator 1
  43 0008 1E20     		movs	r0, #30
  44 000a 01A9     		add	r1, sp, #4
  45 000c 0122     		movs	r2, #1
  46 000e 0023     		movs	r3, #0
  47 0010 FFF7FEFF 		bl	I2C_1_MasterWriteBuf
  48              	.LVL3:
  31:LIS3MDLMagnitometerSensor.c ****                                         LIS3MDL_WR_BUFFER_SIZE, I2C_1_MODE_COMPLETE_XFER);
  32:LIS3MDLMagnitometerSensor.c ****         }
  33:LIS3MDLMagnitometerSensor.c ****         while (WR_Status != I2C_1_MSTR_NO_ERROR);
  49              		.loc 1 33 0 discriminator 1
  50 0014 0028     		cmp	r0, #0
  51 0016 F7D1     		bne	.L2
  52              	.LVL4:
  53              	.L3:
  34:LIS3MDLMagnitometerSensor.c **** 
  35:LIS3MDLMagnitometerSensor.c **** 
  36:LIS3MDLMagnitometerSensor.c **** 
  37:LIS3MDLMagnitometerSensor.c ****         /* Wait for the data transfer to complete */
  38:LIS3MDLMagnitometerSensor.c ****         while(I2C_1_MasterStatus() & I2C_1_MSTAT_XFER_INP);
  54              		.loc 1 38 0 discriminator 1
  55 0018 FFF7FEFF 		bl	I2C_1_MasterStatus
  56              	.LVL5:
  57 001c 10F0040F 		tst	r0, #4
  58 0020 FAD1     		bne	.L3
  39:LIS3MDLMagnitometerSensor.c **** 
  40:LIS3MDLMagnitometerSensor.c ****         WR_Status = I2C_1_MasterClearStatus();
  59              		.loc 1 40 0
  60 0022 FFF7FEFF 		bl	I2C_1_MasterClearStatus
  61              	.LVL6:
  41:LIS3MDLMagnitometerSensor.c **** 
  42:LIS3MDLMagnitometerSensor.c ****         RD_Status = I2C_1_MasterReadBuf(I2C_LIS3MDL_Address, (uint8 *)RD_Buffer,
  62              		.loc 1 42 0
  63 0026 1E20     		movs	r0, #30
  64 0028 6946     		mov	r1, sp
  65 002a 0122     		movs	r2, #1
  66 002c 0023     		movs	r3, #0
  67 002e FFF7FEFF 		bl	I2C_1_MasterReadBuf
  68              	.LVL7:
  69              	.L4:
  43:LIS3MDLMagnitometerSensor.c ****                     LIS3MDL_RD_BUFFER_SIZE, I2C_1_MODE_COMPLETE_XFER);
  44:LIS3MDLMagnitometerSensor.c **** 
  45:LIS3MDLMagnitometerSensor.c ****         while (RD_Status != I2C_1_MSTR_NO_ERROR);
ARM GAS  C:\Users\Hesham\AppData\Local\Temp\ccPFFhbW.s 			page 3


  70              		.loc 1 45 0 discriminator 1
  71 0032 0028     		cmp	r0, #0
  72 0034 FDD1     		bne	.L4
  73              	.LVL8:
  74              	.L5:
  46:LIS3MDLMagnitometerSensor.c **** 
  47:LIS3MDLMagnitometerSensor.c ****         /* Wait for the data transfer to complete */
  48:LIS3MDLMagnitometerSensor.c ****         while(I2C_1_MasterStatus() & I2C_1_MSTAT_XFER_INP);
  75              		.loc 1 48 0 discriminator 1
  76 0036 FFF7FEFF 		bl	I2C_1_MasterStatus
  77              	.LVL9:
  78 003a 10F0040F 		tst	r0, #4
  79 003e FAD1     		bne	.L5
  49:LIS3MDLMagnitometerSensor.c **** 
  50:LIS3MDLMagnitometerSensor.c ****         RD_Status = I2C_1_MasterClearStatus();
  80              		.loc 1 50 0
  81 0040 FFF7FEFF 		bl	I2C_1_MasterClearStatus
  82              	.LVL10:
  51:LIS3MDLMagnitometerSensor.c **** 
  52:LIS3MDLMagnitometerSensor.c ****         return RD_Buffer[0];
  53:LIS3MDLMagnitometerSensor.c **** }
  83              		.loc 1 53 0
  84 0044 9DF80000 		ldrb	r0, [sp]	@ zero_extendqisi2
  85 0048 03B0     		add	sp, sp, #12
  86              		.cfi_def_cfa_offset 4
  87              		@ sp needed
  88 004a 5DF804FB 		ldr	pc, [sp], #4
  89              		.cfi_endproc
  90              	.LFE63:
  91              		.size	I2C_LIS3MDL, .-I2C_LIS3MDL
  92 004e 00BF     		.section	.text.LIS3MDL_TEST,"ax",%progbits
  93              		.align	2
  94              		.global	LIS3MDL_TEST
  95              		.thumb
  96              		.thumb_func
  97              		.type	LIS3MDL_TEST, %function
  98              	LIS3MDL_TEST:
  99              	.LFB64:
  54:LIS3MDLMagnitometerSensor.c **** 
  55:LIS3MDLMagnitometerSensor.c **** //Testing LIS3MDL
  56:LIS3MDLMagnitometerSensor.c **** 
  57:LIS3MDLMagnitometerSensor.c **** uint16 LIS3MDL_TEST(){
 100              		.loc 1 57 0
 101              		.cfi_startproc
 102              		@ args = 0, pretend = 0, frame = 0
 103              		@ frame_needed = 0, uses_anonymous_args = 0
 104 0000 08B5     		push	{r3, lr}
 105              		.cfi_def_cfa_offset 8
 106              		.cfi_offset 3, -8
 107              		.cfi_offset 14, -4
  58:LIS3MDLMagnitometerSensor.c **** 
  59:LIS3MDLMagnitometerSensor.c ****     return I2C_LIS3MDL(LIS3MDL_WHO_AM_I); // should be 0x3D
 108              		.loc 1 59 0
 109 0002 0F20     		movs	r0, #15
 110 0004 FFF7FEFF 		bl	I2C_LIS3MDL
 111              	.LVL11:
  60:LIS3MDLMagnitometerSensor.c **** 
ARM GAS  C:\Users\Hesham\AppData\Local\Temp\ccPFFhbW.s 			page 4


  61:LIS3MDLMagnitometerSensor.c **** }
 112              		.loc 1 61 0
 113 0008 08BD     		pop	{r3, pc}
 114              		.cfi_endproc
 115              	.LFE64:
 116              		.size	LIS3MDL_TEST, .-LIS3MDL_TEST
 117 000a 00BF     		.section	.text.LIS3MDL_Read_Magnetiometer,"ax",%progbits
 118              		.align	2
 119              		.global	LIS3MDL_Read_Magnetiometer
 120              		.thumb
 121              		.thumb_func
 122              		.type	LIS3MDL_Read_Magnetiometer, %function
 123              	LIS3MDL_Read_Magnetiometer:
 124              	.LFB65:
  62:LIS3MDLMagnitometerSensor.c **** 
  63:LIS3MDLMagnitometerSensor.c **** //Read Magentometer
  64:LIS3MDLMagnitometerSensor.c **** 
  65:LIS3MDLMagnitometerSensor.c **** void LIS3MDL_Read_Magnetiometer(signed short* X, signed short* Y ,signed short* Z){
 125              		.loc 1 65 0
 126              		.cfi_startproc
 127              		@ args = 0, pretend = 0, frame = 8
 128              		@ frame_needed = 0, uses_anonymous_args = 0
 129              	.LVL12:
 130 0000 70B5     		push	{r4, r5, r6, lr}
 131              		.cfi_def_cfa_offset 16
 132              		.cfi_offset 4, -16
 133              		.cfi_offset 5, -12
 134              		.cfi_offset 6, -8
 135              		.cfi_offset 14, -4
 136 0002 82B0     		sub	sp, sp, #8
 137              		.cfi_def_cfa_offset 24
 138 0004 0646     		mov	r6, r0
 139 0006 0D46     		mov	r5, r1
 140 0008 1446     		mov	r4, r2
  66:LIS3MDLMagnitometerSensor.c **** 
  67:LIS3MDLMagnitometerSensor.c ****     volatile uint8 X_L = 0;
 141              		.loc 1 67 0
 142 000a 0023     		movs	r3, #0
 143 000c 8DF80730 		strb	r3, [sp, #7]
  68:LIS3MDLMagnitometerSensor.c **** 
  69:LIS3MDLMagnitometerSensor.c ****     volatile uint8 X_H = 0;
 144              		.loc 1 69 0
 145 0010 8DF80630 		strb	r3, [sp, #6]
  70:LIS3MDLMagnitometerSensor.c **** 
  71:LIS3MDLMagnitometerSensor.c ****     volatile uint8 Y_L = 0;
 146              		.loc 1 71 0
 147 0014 8DF80530 		strb	r3, [sp, #5]
  72:LIS3MDLMagnitometerSensor.c **** 
  73:LIS3MDLMagnitometerSensor.c ****     volatile uint8 Y_H = 0;
 148              		.loc 1 73 0
 149 0018 8DF80430 		strb	r3, [sp, #4]
  74:LIS3MDLMagnitometerSensor.c **** 
  75:LIS3MDLMagnitometerSensor.c ****     volatile uint8 Z_L = 0;
 150              		.loc 1 75 0
 151 001c 8DF80330 		strb	r3, [sp, #3]
  76:LIS3MDLMagnitometerSensor.c **** 
  77:LIS3MDLMagnitometerSensor.c ****     volatile uint8 Z_H = 0;
ARM GAS  C:\Users\Hesham\AppData\Local\Temp\ccPFFhbW.s 			page 5


 152              		.loc 1 77 0
 153 0020 8DF80230 		strb	r3, [sp, #2]
  78:LIS3MDLMagnitometerSensor.c **** 
  79:LIS3MDLMagnitometerSensor.c ****     X_L = I2C_LIS3MDL(LIS3MDL_OUT_X_L);
 154              		.loc 1 79 0
 155 0024 2820     		movs	r0, #40
 156              	.LVL13:
 157 0026 FFF7FEFF 		bl	I2C_LIS3MDL
 158              	.LVL14:
 159 002a 8DF80700 		strb	r0, [sp, #7]
  80:LIS3MDLMagnitometerSensor.c **** 
  81:LIS3MDLMagnitometerSensor.c ****     X_H = I2C_LIS3MDL(LIS3MDL_OUT_X_H);
 160              		.loc 1 81 0
 161 002e 2920     		movs	r0, #41
 162 0030 FFF7FEFF 		bl	I2C_LIS3MDL
 163              	.LVL15:
 164 0034 8DF80600 		strb	r0, [sp, #6]
  82:LIS3MDLMagnitometerSensor.c **** 
  83:LIS3MDLMagnitometerSensor.c ****     Y_L = I2C_LIS3MDL(LIS3MDL_OUT_Y_L);
 165              		.loc 1 83 0
 166 0038 2A20     		movs	r0, #42
 167 003a FFF7FEFF 		bl	I2C_LIS3MDL
 168              	.LVL16:
 169 003e 8DF80500 		strb	r0, [sp, #5]
  84:LIS3MDLMagnitometerSensor.c **** 
  85:LIS3MDLMagnitometerSensor.c ****     Y_H = I2C_LIS3MDL(LIS3MDL_OUT_Y_H);
 170              		.loc 1 85 0
 171 0042 2B20     		movs	r0, #43
 172 0044 FFF7FEFF 		bl	I2C_LIS3MDL
 173              	.LVL17:
 174 0048 8DF80400 		strb	r0, [sp, #4]
  86:LIS3MDLMagnitometerSensor.c **** 
  87:LIS3MDLMagnitometerSensor.c ****     Z_L = I2C_LIS3MDL(LIS3MDL_OUT_Z_L);
 175              		.loc 1 87 0
 176 004c 2C20     		movs	r0, #44
 177 004e FFF7FEFF 		bl	I2C_LIS3MDL
 178              	.LVL18:
 179 0052 8DF80300 		strb	r0, [sp, #3]
  88:LIS3MDLMagnitometerSensor.c **** 
  89:LIS3MDLMagnitometerSensor.c ****     Z_H = I2C_LIS3MDL(LIS3MDL_OUT_Z_H);
 180              		.loc 1 89 0
 181 0056 2D20     		movs	r0, #45
 182 0058 FFF7FEFF 		bl	I2C_LIS3MDL
 183              	.LVL19:
 184 005c 8DF80200 		strb	r0, [sp, #2]
  90:LIS3MDLMagnitometerSensor.c **** 
  91:LIS3MDLMagnitometerSensor.c ****     *X = (X_L | X_H<<8) - X_Abs;
 185              		.loc 1 91 0
 186 0060 9DF80720 		ldrb	r2, [sp, #7]	@ zero_extendqisi2
 187 0064 9DF80630 		ldrb	r3, [sp, #6]	@ zero_extendqisi2
 188 0068 0C49     		ldr	r1, .L11
 189 006a 0888     		ldrh	r0, [r1]
 190 006c 42EA0323 		orr	r3, r2, r3, lsl #8
 191 0070 1B1A     		subs	r3, r3, r0
 192 0072 3380     		strh	r3, [r6]	@ movhi
  92:LIS3MDLMagnitometerSensor.c **** 
  93:LIS3MDLMagnitometerSensor.c ****     *Y = (Y_L | Y_H<<8) - Y_Abs;
ARM GAS  C:\Users\Hesham\AppData\Local\Temp\ccPFFhbW.s 			page 6


 193              		.loc 1 93 0
 194 0074 9DF80520 		ldrb	r2, [sp, #5]	@ zero_extendqisi2
 195 0078 9DF80430 		ldrb	r3, [sp, #4]	@ zero_extendqisi2
 196 007c 4888     		ldrh	r0, [r1, #2]
 197 007e 42EA0323 		orr	r3, r2, r3, lsl #8
 198 0082 1B1A     		subs	r3, r3, r0
 199 0084 2B80     		strh	r3, [r5]	@ movhi
  94:LIS3MDLMagnitometerSensor.c **** 
  95:LIS3MDLMagnitometerSensor.c ****     *Z = (Z_L | Z_H<<8) - Z_Abs;
 200              		.loc 1 95 0
 201 0086 9DF80320 		ldrb	r2, [sp, #3]	@ zero_extendqisi2
 202 008a 9DF80230 		ldrb	r3, [sp, #2]	@ zero_extendqisi2
 203 008e 8988     		ldrh	r1, [r1, #4]
 204 0090 42EA0323 		orr	r3, r2, r3, lsl #8
 205 0094 5B1A     		subs	r3, r3, r1
 206 0096 2380     		strh	r3, [r4]	@ movhi
  96:LIS3MDLMagnitometerSensor.c **** 
  97:LIS3MDLMagnitometerSensor.c **** }
 207              		.loc 1 97 0
 208 0098 02B0     		add	sp, sp, #8
 209              		.cfi_def_cfa_offset 16
 210              		@ sp needed
 211 009a 70BD     		pop	{r4, r5, r6, pc}
 212              	.LVL20:
 213              	.L12:
 214              		.align	2
 215              	.L11:
 216 009c 00000000 		.word	.LANCHOR0
 217              		.cfi_endproc
 218              	.LFE65:
 219              		.size	LIS3MDL_Read_Magnetiometer, .-LIS3MDL_Read_Magnetiometer
 220              		.section	.text.Init_LIS3MDL,"ax",%progbits
 221              		.align	2
 222              		.global	Init_LIS3MDL
 223              		.thumb
 224              		.thumb_func
 225              		.type	Init_LIS3MDL, %function
 226              	Init_LIS3MDL:
 227              	.LFB66:
  98:LIS3MDLMagnitometerSensor.c **** 
  99:LIS3MDLMagnitometerSensor.c **** 
 100:LIS3MDLMagnitometerSensor.c **** void Init_LIS3MDL(){
 228              		.loc 1 100 0
 229              		.cfi_startproc
 230              		@ args = 0, pretend = 0, frame = 8
 231              		@ frame_needed = 0, uses_anonymous_args = 0
 232 0000 00B5     		push	{lr}
 233              		.cfi_def_cfa_offset 4
 234              		.cfi_offset 14, -4
 235 0002 83B0     		sub	sp, sp, #12
 236              		.cfi_def_cfa_offset 16
 237              	.LVL21:
 101:LIS3MDLMagnitometerSensor.c **** 
 102:LIS3MDLMagnitometerSensor.c ****     uint8 WR_Status = 0;
 103:LIS3MDLMagnitometerSensor.c ****     uint8 RD_Status = 0;
 104:LIS3MDLMagnitometerSensor.c ****     uint8 WR_Buffer[Init_LIS3MDL_WR_BUFFER_SIZE];
 105:LIS3MDLMagnitometerSensor.c **** 
ARM GAS  C:\Users\Hesham\AppData\Local\Temp\ccPFFhbW.s 			page 7


 106:LIS3MDLMagnitometerSensor.c ****     WR_Buffer[0] = LIS3MDL_CTRL_REG3;
 238              		.loc 1 106 0
 239 0004 2223     		movs	r3, #34
 240 0006 8DF80430 		strb	r3, [sp, #4]
 107:LIS3MDLMagnitometerSensor.c ****     WR_Buffer[1] = LIS3MDL_OP_MD;
 241              		.loc 1 107 0
 242 000a 0023     		movs	r3, #0
 243 000c 8DF80530 		strb	r3, [sp, #5]
 244              	.LVL22:
 245              	.L14:
 108:LIS3MDLMagnitometerSensor.c **** 
 109:LIS3MDLMagnitometerSensor.c ****             do
 110:LIS3MDLMagnitometerSensor.c ****         {
 111:LIS3MDLMagnitometerSensor.c ****             /* The syntax below automatically writes a buffer of data to a slave
 112:LIS3MDLMagnitometerSensor.c ****              * device from start to stop.
 113:LIS3MDLMagnitometerSensor.c ****               */
 114:LIS3MDLMagnitometerSensor.c ****             WR_Status = I2C_1_MasterWriteBuf(I2C_LIS3MDL_Address, (uint8 *)WR_Buffer,
 246              		.loc 1 114 0 discriminator 1
 247 0010 1E20     		movs	r0, #30
 248 0012 01A9     		add	r1, sp, #4
 249 0014 0222     		movs	r2, #2
 250 0016 0023     		movs	r3, #0
 251 0018 FFF7FEFF 		bl	I2C_1_MasterWriteBuf
 252              	.LVL23:
 115:LIS3MDLMagnitometerSensor.c ****                                         Init_LIS3MDL_WR_BUFFER_SIZE, I2C_1_MODE_COMPLETE_XFER);
 116:LIS3MDLMagnitometerSensor.c ****         }
 117:LIS3MDLMagnitometerSensor.c ****         while (WR_Status != I2C_1_MSTR_NO_ERROR);
 253              		.loc 1 117 0 discriminator 1
 254 001c 0028     		cmp	r0, #0
 255 001e F7D1     		bne	.L14
 256              	.LVL24:
 257              	.L15:
 118:LIS3MDLMagnitometerSensor.c **** 
 119:LIS3MDLMagnitometerSensor.c **** 
 120:LIS3MDLMagnitometerSensor.c **** 
 121:LIS3MDLMagnitometerSensor.c ****         /* Wait for the data transfer to complete */
 122:LIS3MDLMagnitometerSensor.c ****         while(I2C_1_MasterStatus() & I2C_1_MSTAT_XFER_INP);
 258              		.loc 1 122 0 discriminator 1
 259 0020 FFF7FEFF 		bl	I2C_1_MasterStatus
 260              	.LVL25:
 261 0024 10F0040F 		tst	r0, #4
 262 0028 FAD1     		bne	.L15
 123:LIS3MDLMagnitometerSensor.c **** 
 124:LIS3MDLMagnitometerSensor.c ****         WR_Status = I2C_1_MasterClearStatus();
 263              		.loc 1 124 0
 264 002a FFF7FEFF 		bl	I2C_1_MasterClearStatus
 265              	.LVL26:
 125:LIS3MDLMagnitometerSensor.c ****         
 126:LIS3MDLMagnitometerSensor.c ****         LIS3MDL_Read_Magnetiometer(&X_Abs, &Y_Abs, &Z_Abs);
 266              		.loc 1 126 0
 267 002e 044A     		ldr	r2, .L17
 268 0030 1046     		mov	r0, r2
 269 0032 911C     		adds	r1, r2, #2
 270 0034 0432     		adds	r2, r2, #4
 271 0036 FFF7FEFF 		bl	LIS3MDL_Read_Magnetiometer
 272              	.LVL27:
 127:LIS3MDLMagnitometerSensor.c **** 
ARM GAS  C:\Users\Hesham\AppData\Local\Temp\ccPFFhbW.s 			page 8


 128:LIS3MDLMagnitometerSensor.c **** }...
 273              		.loc 1 128 0
 274 003a 03B0     		add	sp, sp, #12
 275              		.cfi_def_cfa_offset 4
 276              		@ sp needed
 277 003c 5DF804FB 		ldr	pc, [sp], #4
 278              	.L18:
 279              		.align	2
 280              	.L17:
 281 0040 00000000 		.word	.LANCHOR0
 282              		.cfi_endproc
 283              	.LFE66:
 284              		.size	Init_LIS3MDL, .-Init_LIS3MDL
 285              		.global	Z_Abs
 286              		.global	Y_Abs
 287              		.global	X_Abs
 288              		.bss
 289              		.align	1
 290              		.set	.LANCHOR0,. + 0
 291              		.type	X_Abs, %object
 292              		.size	X_Abs, 2
 293              	X_Abs:
 294 0000 0000     		.space	2
 295              		.type	Y_Abs, %object
 296              		.size	Y_Abs, 2
 297              	Y_Abs:
 298 0002 0000     		.space	2
 299              		.type	Z_Abs, %object
 300              		.size	Z_Abs, 2
 301              	Z_Abs:
 302 0004 0000     		.space	2
 303              		.text
 304              	.Letext0:
 305              		.file 2 "c:\\program files (x86)\\cypress\\psoc creator\\4.0\\psoc creator\\import\\gnu\\arm\\4.9.
 306              		.file 3 "c:\\program files (x86)\\cypress\\psoc creator\\4.0\\psoc creator\\import\\gnu\\arm\\4.9.
 307              		.file 4 "Generated_Source\\PSoC5/cytypes.h"
 308              		.file 5 "Generated_Source\\PSoC5/core_cm3.h"
 309              		.file 6 "Generated_Source\\PSoC5/I2C_1.h"