ARM GAS  C:\Users\Hesham\AppData\Local\Temp\cclQrxsO.s 			page 1


   1              		.syntax unified
   2              		.cpu cortex-m3
   3              		.fpu softvfp
   4              		.eabi_attribute 20, 1
   5              		.eabi_attribute 21, 1
   6              		.eabi_attribute 23, 3
   7              		.eabi_attribute 24, 1
   8              		.eabi_attribute 25, 1
   9              		.eabi_attribute 26, 1
  10              		.eabi_attribute 30, 1
  11              		.eabi_attribute 34, 1
  12              		.eabi_attribute 18, 4
  13              		.thumb
  14              		.file	"LPS25HPressureSensor.c"
  15              		.text
  16              	.Ltext0:
  17              		.cfi_sections	.debug_frame
  18              		.section	.text.I2C_LPS25H,"ax",%progbits
  19              		.align	2
  20              		.global	I2C_LPS25H
  21              		.thumb
  22              		.thumb_func
  23              		.type	I2C_LPS25H, %function
  24              	I2C_LPS25H:
  25              	.LFB63:
  26              		.file 1 "LPS25HPressureSensor.c"
   1:LPS25HPressureSensor.c **** /*
   2:LPS25HPressureSensor.c ****  * LPS25HPressureSensor.cpp
   3:LPS25HPressureSensor.c ****  *
   4:LPS25HPressureSensor.c ****  *  Created on: Mar 12, 2017
   5:LPS25HPressureSensor.c ****  *      Author: Hesham
   6:LPS25HPressureSensor.c ****  */
   7:LPS25HPressureSensor.c **** 
   8:LPS25HPressureSensor.c **** #include "LPS25HPressureSensor.h"
   9:LPS25HPressureSensor.c **** 
  10:LPS25HPressureSensor.c **** 
  11:LPS25HPressureSensor.c **** uint8 I2C_LPS25H(uint8 Ref_Address){
  27              		.loc 1 11 0
  28              		.cfi_startproc
  29              		@ args = 0, pretend = 0, frame = 8
  30              		@ frame_needed = 0, uses_anonymous_args = 0
  31              	.LVL0:
  32 0000 00B5     		push	{lr}
  33              		.cfi_def_cfa_offset 4
  34              		.cfi_offset 14, -4
  35 0002 83B0     		sub	sp, sp, #12
  36              		.cfi_def_cfa_offset 16
  37              	.LVL1:
  12:LPS25HPressureSensor.c **** 
  13:LPS25HPressureSensor.c ****     uint8 WR_Status = 0;
  14:LPS25HPressureSensor.c ****     uint8 RD_Status = 0;
  15:LPS25HPressureSensor.c ****     uint8 WR_Buffer[LPS25H_WR_BUFFER_SIZE];
  16:LPS25HPressureSensor.c ****     uint8 RD_Buffer[LPS25H_RD_BUFFER_SIZE];
  17:LPS25HPressureSensor.c **** 
  18:LPS25HPressureSensor.c ****     WR_Buffer[0] = Ref_Address;
  38              		.loc 1 18 0
  39 0004 8DF80400 		strb	r0, [sp, #4]
ARM GAS  C:\Users\Hesham\AppData\Local\Temp\cclQrxsO.s 			page 2


  40              	.LVL2:
  41              	.L2:
  19:LPS25HPressureSensor.c **** 
  20:LPS25HPressureSensor.c ****             do
  21:LPS25HPressureSensor.c ****         {
  22:LPS25HPressureSensor.c ****             /* The syntax below automatically writes a buffer of data to a slave
  23:LPS25HPressureSensor.c ****              * device from start to stop.
  24:LPS25HPressureSensor.c ****               */
  25:LPS25HPressureSensor.c ****             WR_Status = I2C_1_MasterWriteBuf(I2C_LPS25H_Address, (uint8 *)WR_Buffer,
  42              		.loc 1 25 0 discriminator 1
  43 0008 5D20     		movs	r0, #93
  44 000a 01A9     		add	r1, sp, #4
  45 000c 0122     		movs	r2, #1
  46 000e 0023     		movs	r3, #0
  47 0010 FFF7FEFF 		bl	I2C_1_MasterWriteBuf
  48              	.LVL3:
  26:LPS25HPressureSensor.c ****                                         LPS25H_WR_BUFFER_SIZE, I2C_1_MODE_COMPLETE_XFER);
  27:LPS25HPressureSensor.c ****         }
  28:LPS25HPressureSensor.c ****         while (WR_Status != I2C_1_MSTR_NO_ERROR);
  49              		.loc 1 28 0 discriminator 1
  50 0014 0028     		cmp	r0, #0
  51 0016 F7D1     		bne	.L2
  52              	.LVL4:
  53              	.L3:
  29:LPS25HPressureSensor.c **** 
  30:LPS25HPressureSensor.c **** 
  31:LPS25HPressureSensor.c **** 
  32:LPS25HPressureSensor.c ****         /* Wait for the data transfer to complete */
  33:LPS25HPressureSensor.c ****         while(I2C_1_MasterStatus() & I2C_1_MSTAT_XFER_INP);
  54              		.loc 1 33 0 discriminator 1
  55 0018 FFF7FEFF 		bl	I2C_1_MasterStatus
  56              	.LVL5:
  57 001c 10F0040F 		tst	r0, #4
  58 0020 FAD1     		bne	.L3
  34:LPS25HPressureSensor.c **** 
  35:LPS25HPressureSensor.c ****         WR_Status = I2C_1_MasterClearStatus();
  59              		.loc 1 35 0
  60 0022 FFF7FEFF 		bl	I2C_1_MasterClearStatus
  61              	.LVL6:
  36:LPS25HPressureSensor.c **** 
  37:LPS25HPressureSensor.c ****         RD_Status = I2C_1_MasterReadBuf(I2C_LPS25H_Address, (uint8 *)RD_Buffer,
  62              		.loc 1 37 0
  63 0026 5D20     		movs	r0, #93
  64 0028 6946     		mov	r1, sp
  65 002a 0122     		movs	r2, #1
  66 002c 0023     		movs	r3, #0
  67 002e FFF7FEFF 		bl	I2C_1_MasterReadBuf
  68              	.LVL7:
  69              	.L4:
  38:LPS25HPressureSensor.c ****                     LPS25H_RD_BUFFER_SIZE, I2C_1_MODE_COMPLETE_XFER);
  39:LPS25HPressureSensor.c **** 
  40:LPS25HPressureSensor.c ****         while (RD_Status != I2C_1_MSTR_NO_ERROR);
  70              		.loc 1 40 0 discriminator 1
  71 0032 0028     		cmp	r0, #0
  72 0034 FDD1     		bne	.L4
  73              	.LVL8:
  74              	.L5:
ARM GAS  C:\Users\Hesham\AppData\Local\Temp\cclQrxsO.s 			page 3


  41:LPS25HPressureSensor.c **** 
  42:LPS25HPressureSensor.c ****         /* Wait for the data transfer to complete */
  43:LPS25HPressureSensor.c ****         while(I2C_1_MasterStatus() & I2C_1_MSTAT_XFER_INP);
  75              		.loc 1 43 0 discriminator 1
  76 0036 FFF7FEFF 		bl	I2C_1_MasterStatus
  77              	.LVL9:
  78 003a 10F0040F 		tst	r0, #4
  79 003e FAD1     		bne	.L5
  44:LPS25HPressureSensor.c **** 
  45:LPS25HPressureSensor.c ****         RD_Status = I2C_1_MasterClearStatus();
  80              		.loc 1 45 0
  81 0040 FFF7FEFF 		bl	I2C_1_MasterClearStatus
  82              	.LVL10:
  46:LPS25HPressureSensor.c **** 
  47:LPS25HPressureSensor.c ****         return RD_Buffer[0];
  48:LPS25HPressureSensor.c **** }
  83              		.loc 1 48 0
  84 0044 9DF80000 		ldrb	r0, [sp]	@ zero_extendqisi2
  85 0048 03B0     		add	sp, sp, #12
  86              		.cfi_def_cfa_offset 4
  87              		@ sp needed
  88 004a 5DF804FB 		ldr	pc, [sp], #4
  89              		.cfi_endproc
  90              	.LFE63:
  91              		.size	I2C_LPS25H, .-I2C_LPS25H
  92 004e 00BF     		.section	.text.Init_LPS25H,"ax",%progbits
  93              		.align	2
  94              		.global	Init_LPS25H
  95              		.thumb
  96              		.thumb_func
  97              		.type	Init_LPS25H, %function
  98              	Init_LPS25H:
  99              	.LFB64:
  49:LPS25HPressureSensor.c **** 
  50:LPS25HPressureSensor.c **** 
  51:LPS25HPressureSensor.c **** void Init_LPS25H(){
 100              		.loc 1 51 0
 101              		.cfi_startproc
 102              		@ args = 0, pretend = 0, frame = 8
 103              		@ frame_needed = 0, uses_anonymous_args = 0
 104 0000 00B5     		push	{lr}
 105              		.cfi_def_cfa_offset 4
 106              		.cfi_offset 14, -4
 107 0002 83B0     		sub	sp, sp, #12
 108              		.cfi_def_cfa_offset 16
 109              	.LVL11:
  52:LPS25HPressureSensor.c **** 
  53:LPS25HPressureSensor.c ****     uint8 WR_Status = 0;
  54:LPS25HPressureSensor.c ****     uint8 RD_Status = 0;
  55:LPS25HPressureSensor.c ****     uint8 WR_Buffer[Init_LPS25H_WR_BUFFER_SIZE];
  56:LPS25HPressureSensor.c **** 
  57:LPS25HPressureSensor.c ****     WR_Buffer[0] = LPS25H_CTRL_REG1;
 110              		.loc 1 57 0
 111 0004 2023     		movs	r3, #32
 112 0006 8DF80430 		strb	r3, [sp, #4]
  58:LPS25HPressureSensor.c ****     WR_Buffer[1] = LPS25H_PW_ACTIVE|LPS25H_ODR;
 113              		.loc 1 58 0
ARM GAS  C:\Users\Hesham\AppData\Local\Temp\cclQrxsO.s 			page 4


 114 000a C023     		movs	r3, #192
 115 000c 8DF80530 		strb	r3, [sp, #5]
 116              	.LVL12:
 117              	.L8:
  59:LPS25HPressureSensor.c **** 
  60:LPS25HPressureSensor.c ****             do
  61:LPS25HPressureSensor.c ****         {
  62:LPS25HPressureSensor.c ****             /* The syntax below automatically writes a buffer of data to a slave
  63:LPS25HPressureSensor.c ****              * device from start to stop.
  64:LPS25HPressureSensor.c ****               */
  65:LPS25HPressureSensor.c ****             WR_Status = I2C_1_MasterWriteBuf(I2C_LPS25H_Address, (uint8 *)WR_Buffer,
 118              		.loc 1 65 0 discriminator 1
 119 0010 5D20     		movs	r0, #93
 120 0012 01A9     		add	r1, sp, #4
 121 0014 0222     		movs	r2, #2
 122 0016 0023     		movs	r3, #0
 123 0018 FFF7FEFF 		bl	I2C_1_MasterWriteBuf
 124              	.LVL13:
  66:LPS25HPressureSensor.c ****                                         Init_LPS25H_WR_BUFFER_SIZE, I2C_1_MODE_COMPLETE_XFER);
  67:LPS25HPressureSensor.c ****         }
  68:LPS25HPressureSensor.c ****         while (WR_Status != I2C_1_MSTR_NO_ERROR);
 125              		.loc 1 68 0 discriminator 1
 126 001c 0028     		cmp	r0, #0
 127 001e F7D1     		bne	.L8
 128              	.LVL14:
 129              	.L9:
  69:LPS25HPressureSensor.c **** 
  70:LPS25HPressureSensor.c **** 
  71:LPS25HPressureSensor.c **** 
  72:LPS25HPressureSensor.c ****         /* Wait for the data transfer to complete */
  73:LPS25HPressureSensor.c ****         while(I2C_1_MasterStatus() & I2C_1_MSTAT_XFER_INP);
 130              		.loc 1 73 0 discriminator 1
 131 0020 FFF7FEFF 		bl	I2C_1_MasterStatus
 132              	.LVL15:
 133 0024 10F0040F 		tst	r0, #4
 134 0028 FAD1     		bne	.L9
  74:LPS25HPressureSensor.c **** 
  75:LPS25HPressureSensor.c ****         WR_Status = I2C_1_MasterClearStatus();
 135              		.loc 1 75 0
 136 002a FFF7FEFF 		bl	I2C_1_MasterClearStatus
 137              	.LVL16:
  76:LPS25HPressureSensor.c **** 
  77:LPS25HPressureSensor.c **** }
 138              		.loc 1 77 0
 139 002e 03B0     		add	sp, sp, #12
 140              		.cfi_def_cfa_offset 4
 141              		@ sp needed
 142 0030 5DF804FB 		ldr	pc, [sp], #4
 143              		.cfi_endproc
 144              	.LFE64:
 145              		.size	Init_LPS25H, .-Init_LPS25H
 146              		.section	.text.LPS25H_Read_PRESSURE,"ax",%progbits
 147              		.align	2
 148              		.global	LPS25H_Read_PRESSURE
 149              		.thumb
 150              		.thumb_func
 151              		.type	LPS25H_Read_PRESSURE, %function
ARM GAS  C:\Users\Hesham\AppData\Local\Temp\cclQrxsO.s 			page 5


 152              	LPS25H_Read_PRESSURE:
 153              	.LFB65:
  78:LPS25HPressureSensor.c **** 
  79:LPS25HPressureSensor.c **** 
  80:LPS25HPressureSensor.c **** //Read PRESSURE
  81:LPS25HPressureSensor.c **** 
  82:LPS25HPressureSensor.c **** uint16 LPS25H_Read_PRESSURE(){
 154              		.loc 1 82 0
 155              		.cfi_startproc
 156              		@ args = 0, pretend = 0, frame = 0
 157              		@ frame_needed = 0, uses_anonymous_args = 0
 158 0000 38B5     		push	{r3, r4, r5, lr}
 159              		.cfi_def_cfa_offset 16
 160              		.cfi_offset 3, -16
 161              		.cfi_offset 4, -12
 162              		.cfi_offset 5, -8
 163              		.cfi_offset 14, -4
 164              	.LVL17:
  83:LPS25HPressureSensor.c **** 
  84:LPS25HPressureSensor.c ****     uint8 PRESS_OUT_XL = 0;
  85:LPS25HPressureSensor.c **** 
  86:LPS25HPressureSensor.c ****     uint8 PRESS_OUT_L = 0;
  87:LPS25HPressureSensor.c **** 
  88:LPS25HPressureSensor.c ****     uint8 PRESS_OUT_H = 0;
  89:LPS25HPressureSensor.c **** 
  90:LPS25HPressureSensor.c ****     int PRESS_OUT = 0;
  91:LPS25HPressureSensor.c **** 
  92:LPS25HPressureSensor.c ****     int PRESSURE = 0;
  93:LPS25HPressureSensor.c **** 
  94:LPS25HPressureSensor.c ****     PRESS_OUT_XL = I2C_LPS25H(LPS25H_PRESS_POUT_XL);
 165              		.loc 1 94 0
 166 0002 2820     		movs	r0, #40
 167 0004 FFF7FEFF 		bl	I2C_LPS25H
 168              	.LVL18:
 169 0008 0446     		mov	r4, r0
 170              	.LVL19:
  95:LPS25HPressureSensor.c **** 
  96:LPS25HPressureSensor.c ****     PRESS_OUT_L = I2C_LPS25H(LPS25H_PRESS_OUT_L);
 171              		.loc 1 96 0
 172 000a 2920     		movs	r0, #41
 173 000c FFF7FEFF 		bl	I2C_LPS25H
 174              	.LVL20:
 175 0010 0546     		mov	r5, r0
 176              	.LVL21:
  97:LPS25HPressureSensor.c **** 
  98:LPS25HPressureSensor.c ****     PRESS_OUT_H = I2C_LPS25H(LPS25H_PRESS_OUT_H );
 177              		.loc 1 98 0
 178 0012 2A20     		movs	r0, #42
 179 0014 FFF7FEFF 		bl	I2C_LPS25H
 180              	.LVL22:
  99:LPS25HPressureSensor.c **** 
 100:LPS25HPressureSensor.c ****     PRESS_OUT = PRESS_OUT_XL | PRESS_OUT_L << 8 | PRESS_OUT_H << 16;
 181              		.loc 1 100 0
 182 0018 44EA0523 		orr	r3, r4, r5, lsl #8
 183              	.LVL23:
 101:LPS25HPressureSensor.c **** 
 102:LPS25HPressureSensor.c ****     PRESSURE = PRESS_OUT / 4096;
ARM GAS  C:\Users\Hesham\AppData\Local\Temp\cclQrxsO.s 			page 6


 184              		.loc 1 102 0
 185 001c 53EA0040 		orrs	r0, r3, r0, lsl #16
 186              	.LVL24:
 187 0020 01D5     		bpl	.L12
 188 0022 00F6FF70 		addw	r0, r0, #4095
 189              	.L12:
 190              	.LVL25:
 103:LPS25HPressureSensor.c **** 
 104:LPS25HPressureSensor.c ****     return PRESSURE;
 105:LPS25HPressureSensor.c **** }
 191              		.loc 1 105 0
 192 0026 C0F30F30 		ubfx	r0, r0, #12, #16
 193              	.LVL26:
 194 002a 38BD     		pop	{r3, r4, r5, pc}
 195              		.cfi_endproc
 196              	.LFE65:
 197              		.size	LPS25H_Read_PRESSURE, .-LPS25H_Read_PRESSURE
 198              		.section	.text.LPS25H_TEST,"ax",%progbits
 199              		.align	2
 200              		.global	LPS25H_TEST
 201              		.thumb
 202              		.thumb_func
 203              		.type	LPS25H_TEST, %function
 204              	LPS25H_TEST:
 205              	.LFB66:
 106:LPS25HPressureSensor.c **** 
 107:LPS25HPressureSensor.c **** //Testing LPS25H
 108:LPS25HPressureSensor.c **** 
 109:LPS25HPressureSensor.c **** uint16 LPS25H_TEST(){
 206              		.loc 1 109 0
 207              		.cfi_startproc
 208              		@ args = 0, pretend = 0, frame = 0
 209              		@ frame_needed = 0, uses_anonymous_args = 0
 210 0000 08B5     		push	{r3, lr}
 211              		.cfi_def_cfa_offset 8
 212              		.cfi_offset 3, -8
 213              		.cfi_offset 14, -4
 110:LPS25HPressureSensor.c **** 
 111:LPS25HPressureSensor.c ****     return I2C_LPS25H(LPS25H_WHO_AM_I); // should be 0xBD
 214              		.loc 1 111 0
 215 0002 0F20     		movs	r0, #15
 216 0004 FFF7FEFF 		bl	I2C_LPS25H
 217              	.LVL27:
 112:LPS25HPressureSensor.c **** 
 113:LPS25HPressureSensor.c **** }
 218              		.loc 1 113 0
 219 0008 08BD     		pop	{r3, pc}
 220              		.cfi_endproc
 221              	.LFE66:
 222              		.size	LPS25H_TEST, .-LPS25H_TEST
 223 000a 00BF     		.text
 224              	.Letext0:
 225              		.file 2 "c:\\program files (x86)\\cypress\\psoc creator\\4.0\\psoc creator\\import\\gnu\\arm\\4.9.
 226              		.file 3 "c:\\program files (x86)\\cypress\\psoc creator\\4.0\\psoc creator\\import\\gnu\\arm\\4.9.
 227              		.file 4 "Generated_Source\\PSoC5/cytypes.h"
 228              		.file 5 "Generated_Source\\PSoC5/I2C_1.h"
 229              		.file 6 "Generated_Source\\PSoC5/core_cm3.h"
ARM GAS  C:\Users\Hesham\AppData\Local\Temp\cclQrxsO.s 			page 7

