ARM GAS  C:\Users\Hesham\AppData\Local\Temp\ccjHmKIb.s 			page 1


   1              		.syntax unified
   2              		.cpu cortex-m3
   3              		.fpu softvfp
   4              		.eabi_attribute 20, 1
   5              		.eabi_attribute 21, 1
   6              		.eabi_attribute 23, 3
   7              		.eabi_attribute 24, 1
   8              		.eabi_attribute 25, 1
   9              		.eabi_attribute 26, 1
  10              		.eabi_attribute 30, 1
  11              		.eabi_attribute 34, 1
  12              		.eabi_attribute 18, 4
  13              		.thumb
  14              		.file	"main.c"
  15              		.text
  16              	.Ltext0:
  17              		.cfi_sections	.debug_frame
  18              		.section	.text.i8ToString,"ax",%progbits
  19              		.align	2
  20              		.thumb
  21              		.thumb_func
  22              		.type	i8ToString, %function
  23              	i8ToString:
  24              	.LFB67:
  25              		.file 1 "main.c"
   1:main.c        **** /* ========================================
   2:main.c        ****  *
   3:main.c        ****  * Copyright YOUR COMPANY, THE YEAR
   4:main.c        ****  * All Rights Reserved
   5:main.c        ****  * UNPUBLISHED, LICENSED SOFTWARE.
   6:main.c        ****  *
   7:main.c        ****  * CONFIDENTIAL AND PROPRIETARY INFORMATION
   8:main.c        ****  * WHICH IS THE PROPERTY OF your company.
   9:main.c        ****  *
  10:main.c        ****  * ========================================
  11:main.c        **** */
  12:main.c        **** 
  13:main.c        **** #include "project.h"
  14:main.c        **** #include "HTS221TempHumiditySensor.h"
  15:main.c        **** #include "LIS3MDLMagnitometerSensor.h"
  16:main.c        **** #include "LPS25HPressureSensor.h"
  17:main.c        **** #include "LSM6DS0AccelerometerGyroscopeSensor.h"
  18:main.c        **** 
  19:main.c        **** #define RD_BUFFER_SIZE          (1u)
  20:main.c        **** #define WR_BUFFER_SIZE          (1u)
  21:main.c        **** #define WR_BUFFER_SIZE_DATA     (2u)
  22:main.c        **** //LED's
  23:main.c        **** static void LED_On(){
  24:main.c        ****  
  25:main.c        ****     PWM_1_WriteCompare(255);
  26:main.c        ****     
  27:main.c        **** }
  28:main.c        **** 
  29:main.c        **** static void LED_Off(){
  30:main.c        ****  
  31:main.c        ****     PWM_1_WriteCompare(0);
  32:main.c        ****     
ARM GAS  C:\Users\Hesham\AppData\Local\Temp\ccjHmKIb.s 			page 2


  33:main.c        **** }
  34:main.c        **** 
  35:main.c        **** static void LED_Different(int value){
  36:main.c        ****  
  37:main.c        ****     PWM_1_WriteCompare(value);
  38:main.c        ****     
  39:main.c        **** }
  40:main.c        **** 
  41:main.c        **** static void LED_Breath(){
  42:main.c        **** 
  43:main.c        ****     static int Counter = 0;
  44:main.c        ****     
  45:main.c        ****     static int inc = 0;
  46:main.c        ****         
  47:main.c        ****     PWM_1_WriteCompare(Counter);  
  48:main.c        ****   
  49:main.c        ****     if(PIN_1_Read() == 1)
  50:main.c        ****     
  51:main.c        ****     {      
  52:main.c        ****         
  53:main.c        ****         if(inc == 0){
  54:main.c        ****             if(Counter < 254)
  55:main.c        ****                 Counter++;   
  56:main.c        ****             else
  57:main.c        ****                 inc = 1;
  58:main.c        ****         }
  59:main.c        ****  
  60:main.c        ****         if(inc == 1){
  61:main.c        ****             if(Counter > 0)
  62:main.c        ****                 Counter--;   
  63:main.c        ****             else
  64:main.c        ****                 inc = 0;
  65:main.c        ****         }
  66:main.c        **** 
  67:main.c        ****         else
  68:main.c        ****         {
  69:main.c        ****             
  70:main.c        ****             LED_On();
  71:main.c        ****             
  72:main.c        ****             PWM_1_Stop();
  73:main.c        ****                 
  74:main.c        ****             CyDelay(50u);
  75:main.c        ****                 
  76:main.c        ****             PWM_1_Start();
  77:main.c        ****     
  78:main.c        ****             CyDelay(10u);
  79:main.c        ****             
  80:main.c        ****         }
  81:main.c        **** 
  82:main.c        ****     
  83:main.c        **** 
  84:main.c        ****     }
  85:main.c        **** }
  86:main.c        **** 
  87:main.c        **** static void i8ToString(int8_t n, char *str)
  88:main.c        **** {
  26              		.loc 1 88 0
ARM GAS  C:\Users\Hesham\AppData\Local\Temp\ccjHmKIb.s 			page 3


  27              		.cfi_startproc
  28              		@ args = 0, pretend = 0, frame = 8
  29              		@ frame_needed = 0, uses_anonymous_args = 0
  30              	.LVL0:
  31 0000 F0B5     		push	{r4, r5, r6, r7, lr}
  32              		.cfi_def_cfa_offset 20
  33              		.cfi_offset 4, -20
  34              		.cfi_offset 5, -16
  35              		.cfi_offset 6, -12
  36              		.cfi_offset 7, -8
  37              		.cfi_offset 14, -4
  38 0002 83B0     		sub	sp, sp, #12
  39              		.cfi_def_cfa_offset 32
  89:main.c        ****     const uint8_t cint8_run[] = {100, 10, 1};
  40              		.loc 1 89 0
  41 0004 204B     		ldr	r3, .L10
  42 0006 1A88     		ldrh	r2, [r3]	@ unaligned
  43 0008 9B78     		ldrb	r3, [r3, #2]	@ zero_extendqisi2
  44 000a ADF80420 		strh	r2, [sp, #4]	@ unaligned
  45 000e 8DF80630 		strb	r3, [sp, #6]
  46              	.LVL1:
  90:main.c        ****     const uint8_t cint8_run_len = 3;
  91:main.c        ****     
  92:main.c        ****     uint8_t i = 0, j = 0;
  93:main.c        ****     uint8_t start_found = 0;
  94:main.c        ****     
  95:main.c        ****     if (0 > n)
  47              		.loc 1 95 0
  48 0012 0028     		cmp	r0, #0
  49              	.LVL2:
  50 0014 03DA     		bge	.L8
  51              	.LVL3:
  96:main.c        ****       str[j++] = '-';  
  52              		.loc 1 96 0
  53 0016 2D23     		movs	r3, #45
  54 0018 0B70     		strb	r3, [r1]
  55 001a 0124     		movs	r4, #1
  56 001c 00E0     		b	.L2
  57              	.LVL4:
  58              	.L8:
  92:main.c        ****     uint8_t start_found = 0;
  59              		.loc 1 92 0
  60 001e 0024     		movs	r4, #0
  61              	.LVL5:
  62              	.L2:
  97:main.c        ****     
  98:main.c        ****     for (; i < cint8_run_len; i++)
  99:main.c        ****     {
 100:main.c        ****         if (start_found == 1)
 101:main.c        ****         {
 102:main.c        ****             str[j++] = '0' + (n / cint8_run[i]);
 103:main.c        ****             n = n % cint8_run[i];
 104:main.c        ****         }
 105:main.c        ****         else
 106:main.c        ****         {
 107:main.c        ****            str[j] = '0' + (n / cint8_run[i]);
 108:main.c        ****            if ('0' < str[j])
ARM GAS  C:\Users\Hesham\AppData\Local\Temp\ccjHmKIb.s 			page 4


 109:main.c        ****            {
 110:main.c        ****                 start_found = 1;
  63              		.loc 1 110 0 discriminator 1
  64 0020 0025     		movs	r5, #0
  65 0022 2B46     		mov	r3, r5
  66 0024 25E0     		b	.L3
  67              	.LVL6:
  68              	.L6:
 100:main.c        ****         {
  69              		.loc 1 100 0
  70 0026 7DB1     		cbz	r5, .L4
 102:main.c        ****             n = n % cint8_run[i];
  71              		.loc 1 102 0
  72 0028 671C     		adds	r7, r4, #1
  73              	.LVL7:
  74 002a 02AA     		add	r2, sp, #8
  75 002c 1A44     		add	r2, r2, r3
  76 002e 12F8046C 		ldrb	r6, [r2, #-4]	@ zero_extendqisi2
  77 0032 90FBF6F2 		sdiv	r2, r0, r6
  78 0036 02F1300E 		add	lr, r2, #48
  79 003a 01F804E0 		strb	lr, [r1, r4]
 103:main.c        ****         }
  80              		.loc 1 103 0
  81 003e 06FB1200 		mls	r0, r6, r2, r0
  82              	.LVL8:
  83 0042 40B2     		sxtb	r0, r0
  84              	.LVL9:
 102:main.c        ****             n = n % cint8_run[i];
  85              		.loc 1 102 0
  86 0044 FCB2     		uxtb	r4, r7
  87 0046 12E0     		b	.L5
  88              	.LVL10:
  89              	.L4:
 107:main.c        ****            if ('0' < str[j])
  90              		.loc 1 107 0
  91 0048 02AA     		add	r2, sp, #8
  92 004a 1A44     		add	r2, r2, r3
  93 004c 12F8046C 		ldrb	r6, [r2, #-4]	@ zero_extendqisi2
  94 0050 90FBF6F2 		sdiv	r2, r0, r6
  95 0054 3032     		adds	r2, r2, #48
  96 0056 D2B2     		uxtb	r2, r2
  97 0058 0A55     		strb	r2, [r1, r4]
 108:main.c        ****            {
  98              		.loc 1 108 0
  99 005a 302A     		cmp	r2, #48
 100 005c 07D9     		bls	.L5
 101              	.LVL11:
 111:main.c        ****                 n = n % cint8_run[i];
 102              		.loc 1 111 0
 103 005e 90FBF6F2 		sdiv	r2, r0, r6
 104 0062 06FB1200 		mls	r0, r6, r2, r0
 105              	.LVL12:
 106 0066 40B2     		sxtb	r0, r0
 107              	.LVL13:
 112:main.c        ****                 j++;               
 108              		.loc 1 112 0
 109 0068 0134     		adds	r4, r4, #1
ARM GAS  C:\Users\Hesham\AppData\Local\Temp\ccjHmKIb.s 			page 5


 110              	.LVL14:
 111 006a E4B2     		uxtb	r4, r4
 112              	.LVL15:
 110:main.c        ****                 n = n % cint8_run[i];
 113              		.loc 1 110 0
 114 006c 0125     		movs	r5, #1
 115              	.LVL16:
 116              	.L5:
  98:main.c        ****     {
 117              		.loc 1 98 0
 118 006e 0133     		adds	r3, r3, #1
 119              	.LVL17:
 120 0070 DBB2     		uxtb	r3, r3
 121              	.LVL18:
 122              	.L3:
  98:main.c        ****     {
 123              		.loc 1 98 0 is_stmt 0 discriminator 1
 124 0072 022B     		cmp	r3, #2
 125 0074 D7D9     		bls	.L6
 113:main.c        ****            }        
 114:main.c        ****         }
 115:main.c        ****     }
 116:main.c        ****     
 117:main.c        ****     if (start_found == 0)
 126              		.loc 1 117 0 is_stmt 1
 127 0076 1DB9     		cbnz	r5, .L7
 118:main.c        ****         str[j++] = '0';
 128              		.loc 1 118 0
 129 0078 631C     		adds	r3, r4, #1
 130              	.LVL19:
 131 007a 3022     		movs	r2, #48
 132 007c 0A55     		strb	r2, [r1, r4]
 133 007e DCB2     		uxtb	r4, r3
 134              	.LVL20:
 135              	.L7:
 119:main.c        ****         
 120:main.c        ****     str[j] = '\0';
 136              		.loc 1 120 0
 137 0080 0023     		movs	r3, #0
 138 0082 0B55     		strb	r3, [r1, r4]
 121:main.c        **** }
 139              		.loc 1 121 0
 140 0084 03B0     		add	sp, sp, #12
 141              		.cfi_def_cfa_offset 20
 142              		@ sp needed
 143 0086 F0BD     		pop	{r4, r5, r6, r7, pc}
 144              	.LVL21:
 145              	.L11:
 146              		.align	2
 147              	.L10:
 148 0088 00000000 		.word	.LANCHOR0
 149              		.cfi_endproc
 150              	.LFE67:
 151              		.size	i8ToString, .-i8ToString
 152              		.section	.text.i16ToString,"ax",%progbits
 153              		.align	2
 154              		.thumb
ARM GAS  C:\Users\Hesham\AppData\Local\Temp\ccjHmKIb.s 			page 6


 155              		.thumb_func
 156              		.type	i16ToString, %function
 157              	i16ToString:
 158              	.LFB68:
 122:main.c        **** 
 123:main.c        **** static void i16ToString(int16_t n, char *str)
 124:main.c        **** {
 159              		.loc 1 124 0
 160              		.cfi_startproc
 161              		@ args = 0, pretend = 0, frame = 8
 162              		@ frame_needed = 0, uses_anonymous_args = 0
 163              	.LVL22:
 164 0000 F0B5     		push	{r4, r5, r6, r7, lr}
 165              		.cfi_def_cfa_offset 20
 166              		.cfi_offset 4, -20
 167              		.cfi_offset 5, -16
 168              		.cfi_offset 6, -12
 169              		.cfi_offset 7, -8
 170              		.cfi_offset 14, -4
 171 0002 83B0     		sub	sp, sp, #12
 172              		.cfi_def_cfa_offset 32
 125:main.c        ****     volatile int temp_n = n;
 173              		.loc 1 125 0
 174 0004 0190     		str	r0, [sp, #4]
 126:main.c        ****     
 127:main.c        ****     volatile char s = '+';
 175              		.loc 1 127 0
 176 0006 2B23     		movs	r3, #43
 177 0008 8DF80330 		strb	r3, [sp, #3]
 128:main.c        ****     
 129:main.c        ****     if(0 > n)
 178              		.loc 1 129 0
 179 000c 0028     		cmp	r0, #0
 180 000e 05DA     		bge	.L13
 130:main.c        ****     {
 131:main.c        ****         temp_n = temp_n * -1;
 181              		.loc 1 131 0
 182 0010 019B     		ldr	r3, [sp, #4]
 183 0012 5B42     		negs	r3, r3
 184 0014 0193     		str	r3, [sp, #4]
 132:main.c        ****         
 133:main.c        ****         s = '-';
 185              		.loc 1 133 0
 186 0016 2D23     		movs	r3, #45
 187 0018 8DF80330 		strb	r3, [sp, #3]
 188              	.L13:
 134:main.c        ****     }
 135:main.c        **** 
 136:main.c        ****     str[4] = '0' + (((temp_n%1000)%100)%10)/1;
 189              		.loc 1 136 0
 190 001c 019A     		ldr	r2, [sp, #4]
 191 001e 2A4C     		ldr	r4, .L15
 192 0020 84FB0230 		smull	r3, r0, r4, r2
 193              	.LVL23:
 194 0024 D317     		asrs	r3, r2, #31
 195 0026 C3EBA010 		rsb	r0, r3, r0, asr #6
 196 002a 4FF47A76 		mov	r6, #1000
ARM GAS  C:\Users\Hesham\AppData\Local\Temp\ccjHmKIb.s 			page 7


 197 002e 06FB1020 		mls	r0, r6, r0, r2
 198 0032 264D     		ldr	r5, .L15+4
 199 0034 85FB0032 		smull	r3, r2, r5, r0
 200 0038 C317     		asrs	r3, r0, #31
 201 003a C3EB6212 		rsb	r2, r3, r2, asr #5
 202 003e 4FF0640E 		mov	lr, #100
 203 0042 0EFB1202 		mls	r2, lr, r2, r0
 204 0046 224F     		ldr	r7, .L15+8
 205 0048 87FB0230 		smull	r3, r0, r7, r2
 206 004c D317     		asrs	r3, r2, #31
 207 004e C3EBA000 		rsb	r0, r3, r0, asr #2
 208 0052 00EB8000 		add	r0, r0, r0, lsl #2
 209 0056 4000     		lsls	r0, r0, #1
 210 0058 101A     		subs	r0, r2, r0
 211 005a 3030     		adds	r0, r0, #48
 212 005c 0871     		strb	r0, [r1, #4]
 137:main.c        ****     str[3] = '0' + ((temp_n%1000)%100)/10;
 213              		.loc 1 137 0
 214 005e 019A     		ldr	r2, [sp, #4]
 215 0060 84FB0230 		smull	r3, r0, r4, r2
 216 0064 D317     		asrs	r3, r2, #31
 217 0066 C3EBA013 		rsb	r3, r3, r0, asr #6
 218 006a 06FB1323 		mls	r3, r6, r3, r2
 219 006e 85FB0302 		smull	r0, r2, r5, r3
 220 0072 D817     		asrs	r0, r3, #31
 221 0074 C0EB6212 		rsb	r2, r0, r2, asr #5
 222 0078 0EFB1232 		mls	r2, lr, r2, r3
 223 007c 87FB0237 		smull	r3, r7, r7, r2
 224 0080 D217     		asrs	r2, r2, #31
 225 0082 C2EBA702 		rsb	r2, r2, r7, asr #2
 226 0086 3032     		adds	r2, r2, #48
 227 0088 CA70     		strb	r2, [r1, #3]
 138:main.c        ****     str[2] = '0' + (temp_n%1000)/100;
 228              		.loc 1 138 0
 229 008a 0198     		ldr	r0, [sp, #4]
 230 008c 84FB0023 		smull	r2, r3, r4, r0
 231 0090 C217     		asrs	r2, r0, #31
 232 0092 C2EBA313 		rsb	r3, r2, r3, asr #6
 233 0096 06FB1303 		mls	r3, r6, r3, r0
 234 009a 85FB0325 		smull	r2, r5, r5, r3
 235 009e DB17     		asrs	r3, r3, #31
 236 00a0 C3EB6513 		rsb	r3, r3, r5, asr #5
 237 00a4 3033     		adds	r3, r3, #48
 238 00a6 8B70     		strb	r3, [r1, #2]
 139:main.c        ****     str[1] = '0' + temp_n/1000;
 239              		.loc 1 139 0
 240 00a8 019B     		ldr	r3, [sp, #4]
 241 00aa 84FB0324 		smull	r2, r4, r4, r3
 242 00ae DB17     		asrs	r3, r3, #31
 243 00b0 C3EBA413 		rsb	r3, r3, r4, asr #6
 244 00b4 3033     		adds	r3, r3, #48
 245 00b6 4B70     		strb	r3, [r1, #1]
 140:main.c        ****     str[0] = s;
 246              		.loc 1 140 0
 247 00b8 9DF80330 		ldrb	r3, [sp, #3]	@ zero_extendqisi2
 248 00bc 0B70     		strb	r3, [r1]
 141:main.c        ****     str[5] = '\0';
ARM GAS  C:\Users\Hesham\AppData\Local\Temp\ccjHmKIb.s 			page 8


 249              		.loc 1 141 0
 250 00be 0023     		movs	r3, #0
 251 00c0 4B71     		strb	r3, [r1, #5]
 142:main.c        **** }
 252              		.loc 1 142 0
 253 00c2 03B0     		add	sp, sp, #12
 254              		.cfi_def_cfa_offset 20
 255              		@ sp needed
 256 00c4 F0BD     		pop	{r4, r5, r6, r7, pc}
 257              	.L16:
 258 00c6 00BF     		.align	2
 259              	.L15:
 260 00c8 D34D6210 		.word	274877907
 261 00cc 1F85EB51 		.word	1374389535
 262 00d0 67666666 		.word	1717986919
 263              		.cfi_endproc
 264              	.LFE68:
 265              		.size	i16ToString, .-i16ToString
 266              		.section	.text.LED_On,"ax",%progbits
 267              		.align	2
 268              		.thumb
 269              		.thumb_func
 270              		.type	LED_On, %function
 271              	LED_On:
 272              	.LFB63:
  23:main.c        ****  
 273              		.loc 1 23 0
 274              		.cfi_startproc
 275              		@ args = 0, pretend = 0, frame = 0
 276              		@ frame_needed = 0, uses_anonymous_args = 0
 277 0000 08B5     		push	{r3, lr}
 278              		.cfi_def_cfa_offset 8
 279              		.cfi_offset 3, -8
 280              		.cfi_offset 14, -4
  25:main.c        ****     
 281              		.loc 1 25 0
 282 0002 FF20     		movs	r0, #255
 283 0004 FFF7FEFF 		bl	PWM_1_WriteCompare
 284              	.LVL24:
 285 0008 08BD     		pop	{r3, pc}
 286              		.cfi_endproc
 287              	.LFE63:
 288              		.size	LED_On, .-LED_On
 289 000a 00BF     		.section	.text.main,"ax",%progbits
 290              		.align	2
 291              		.global	main
 292              		.thumb
 293              		.thumb_func
 294              		.type	main, %function
 295              	main:
 296              	.LFB73:
 143:main.c        **** 
 144:main.c        **** 
 145:main.c        **** static uint8 I2C_Read(uint8 Address,uint8 Ref_Address){
 146:main.c        ****     
 147:main.c        ****     
 148:main.c        ****     uint8 WR_Status = 0;
ARM GAS  C:\Users\Hesham\AppData\Local\Temp\ccjHmKIb.s 			page 9


 149:main.c        ****     uint8 RD_Status = 0;
 150:main.c        ****     uint8 WR_Buffer[LPS25H_WR_BUFFER_SIZE];
 151:main.c        ****     uint8 RD_Buffer[RD_BUFFER_SIZE];
 152:main.c        ****     
 153:main.c        ****     WR_Buffer[0] = Ref_Address;
 154:main.c        ****     
 155:main.c        ****             do
 156:main.c        ****         {
 157:main.c        ****             /* The syntax below automatically writes a buffer of data to a slave
 158:main.c        ****              * device from start to stop.
 159:main.c        ****               */
 160:main.c        ****             WR_Status = I2C_1_MasterWriteBuf(Address, (uint8 *)WR_Buffer,
 161:main.c        ****                                         WR_BUFFER_SIZE, I2C_1_MODE_COMPLETE_XFER);
 162:main.c        ****         }
 163:main.c        ****         while (WR_Status != I2C_1_MSTR_NO_ERROR);
 164:main.c        **** 
 165:main.c        ****         
 166:main.c        ****         
 167:main.c        ****         /* Wait for the data transfer to complete */
 168:main.c        ****         while(I2C_1_MasterStatus() & I2C_1_MSTAT_XFER_INP);
 169:main.c        **** 
 170:main.c        ****         WR_Status = I2C_1_MasterClearStatus();
 171:main.c        ****         
 172:main.c        ****         RD_Status = I2C_1_MasterReadBuf(Address, (uint8 *)RD_Buffer,
 173:main.c        ****                     RD_BUFFER_SIZE, I2C_1_MODE_COMPLETE_XFER);
 174:main.c        **** 
 175:main.c        ****         while (RD_Status != I2C_1_MSTR_NO_ERROR);
 176:main.c        **** 
 177:main.c        ****         /* Wait for the data transfer to complete */
 178:main.c        ****         while(I2C_1_MasterStatus() & I2C_1_MSTAT_XFER_INP);
 179:main.c        **** 
 180:main.c        ****         RD_Status = I2C_1_MasterClearStatus();
 181:main.c        ****         
 182:main.c        ****         return RD_Buffer[0];
 183:main.c        **** }
 184:main.c        **** 
 185:main.c        **** static void I2C_Write(uint8 Address,uint8 Ref_Address,uint8 Data){
 186:main.c        ****     
 187:main.c        ****     
 188:main.c        ****     uint8 WR_Status = 0;
 189:main.c        ****     uint8 RD_Status = 0;
 190:main.c        ****     uint8 WR_Buffer[WR_BUFFER_SIZE_DATA];
 191:main.c        ****     
 192:main.c        ****     WR_Buffer[0] = Ref_Address;
 193:main.c        ****     WR_Buffer[1] = Data;
 194:main.c        ****     
 195:main.c        ****             do
 196:main.c        ****         {
 197:main.c        ****             /* The syntax below automatically writes a buffer of data to a slave
 198:main.c        ****              * device from start to stop.
 199:main.c        ****               */
 200:main.c        ****             WR_Status = I2C_1_MasterWriteBuf(Address, (uint8 *)WR_Buffer,
 201:main.c        ****                                         WR_BUFFER_SIZE_DATA, I2C_1_MODE_COMPLETE_XFER);
 202:main.c        ****         }
 203:main.c        ****         while (WR_Status != I2C_1_MSTR_NO_ERROR);
 204:main.c        **** 
 205:main.c        ****         
ARM GAS  C:\Users\Hesham\AppData\Local\Temp\ccjHmKIb.s 			page 10


 206:main.c        ****         
 207:main.c        ****         /* Wait for the data transfer to complete */
 208:main.c        ****         while(I2C_1_MasterStatus() & I2C_1_MSTAT_XFER_INP);
 209:main.c        **** 
 210:main.c        ****         WR_Status = I2C_1_MasterClearStatus();
 211:main.c        ****         
 212:main.c        **** }
 213:main.c        **** 
 214:main.c        **** // Sending data via UART
 215:main.c        **** 
 216:main.c        **** static void UART_Send_8(char8* Data_Name, uint8 Data){
 217:main.c        **** 
 218:main.c        ****     UART_1_PutString(Data_Name);
 219:main.c        ****     
 220:main.c        ****     UART_1_PutString(" : ");
 221:main.c        ****     
 222:main.c        ****     UART_1_PutCRLF(Data);
 223:main.c        **** 
 224:main.c        **** }
 225:main.c        **** 
 226:main.c        **** static void UART_Send_16(char8* Data_Name, signed short Data ){
 227:main.c        **** 
 228:main.c        ****     UART_1_PutString(Data_Name);
 229:main.c        ****     
 230:main.c        ****     UART_1_PutString(" : ");
 231:main.c        ****     
 232:main.c        ****     signed short Data_L = 0;
 233:main.c        ****     
 234:main.c        ****     if(Data < 0)
 235:main.c        ****     {
 236:main.c        ****         
 237:main.c        ****         Data_L = -1*Data;
 238:main.c        ****          
 239:main.c        ****         UART_1_PutChar('-');
 240:main.c        ****     
 241:main.c        ****     }
 242:main.c        ****     else
 243:main.c        ****     {
 244:main.c        ****     
 245:main.c        ****         Data_L = Data;
 246:main.c        ****         
 247:main.c        ****         UART_1_PutChar('+');
 248:main.c        ****     
 249:main.c        ****     }    
 250:main.c        **** 
 251:main.c        ****     
 252:main.c        ****     UART_1_PutChar(Data_L>>8);
 253:main.c        **** 
 254:main.c        ****     UART_1_PutCRLF(Data_L);
 255:main.c        ****     
 256:main.c        **** }
 257:main.c        **** 
 258:main.c        **** int main(void)
 259:main.c        **** {
 297              		.loc 1 259 0
 298              		.cfi_startproc
 299              		@ args = 0, pretend = 0, frame = 104
ARM GAS  C:\Users\Hesham\AppData\Local\Temp\ccjHmKIb.s 			page 11


 300              		@ frame_needed = 0, uses_anonymous_args = 0
 301 0000 00B5     		push	{lr}
 302              		.cfi_def_cfa_offset 4
 303              		.cfi_offset 14, -4
 304 0002 9BB0     		sub	sp, sp, #108
 305              		.cfi_def_cfa_offset 112
 260:main.c        ****     CyGlobalIntEnable; /* Enable global interrupts. */
 306              		.loc 1 260 0
 307              	@ 260 "main.c" 1
 308 0004 62B6     		CPSIE   i
 309              	@ 0 "" 2
 261:main.c        **** 
 262:main.c        ****     /* Place your initialization/startup code here (e.g. MyInst_Start()) */
 263:main.c        ****     
 264:main.c        ****    
 265:main.c        ****   
 266:main.c        ****     UART_1_Start();
 310              		.loc 1 266 0
 311              		.thumb
 312 0006 FFF7FEFF 		bl	UART_1_Start
 313              	.LVL25:
 267:main.c        **** 
 268:main.c        ****     PWM_1_Start();
 314              		.loc 1 268 0
 315 000a FFF7FEFF 		bl	PWM_1_Start
 316              	.LVL26:
 269:main.c        **** 
 270:main.c        **** 	I2C_1_Start();
 317              		.loc 1 270 0
 318 000e FFF7FEFF 		bl	I2C_1_Start
 319              	.LVL27:
 271:main.c        ****       
 272:main.c        ****     
 273:main.c        ****     Init_LSM6DS0(); // Gyrometer and Acelerometer
 320              		.loc 1 273 0
 321 0012 FFF7FEFF 		bl	Init_LSM6DS0
 322              	.LVL28:
 274:main.c        ****     
 275:main.c        ****     Init_HTS221();  // Temperature and Hyumidity
 323              		.loc 1 275 0
 324 0016 FFF7FEFF 		bl	Init_HTS221
 325              	.LVL29:
 276:main.c        ****     
 277:main.c        ****     Init_LIS3MDL(); // Magnitometer
 326              		.loc 1 277 0
 327 001a FFF7FEFF 		bl	Init_LIS3MDL
 328              	.LVL30:
 278:main.c        **** 
 279:main.c        ****     Init_LPS25H();  // Pressure
 329              		.loc 1 279 0
 330 001e FFF7FEFF 		bl	Init_LPS25H
 331              	.LVL31:
 280:main.c        **** 
 281:main.c        ****     //I2C_Write(I2C_LIS3MDL_Address,0x21,0x0C);
 282:main.c        ****     
 283:main.c        ****     //I2C_Write(I2C_LSM6DS0_Address,0x10,0x80);
 284:main.c        ****     
ARM GAS  C:\Users\Hesham\AppData\Local\Temp\ccjHmKIb.s 			page 12


 285:main.c        ****     //I2C_Write(I2C_LIS3MDL_Address,0x22,0x00);
 286:main.c        ****     
 287:main.c        ****     
 288:main.c        ****     /* Temperature and Humidity Sensor */ 
 289:main.c        ****     
 290:main.c        ****     volatile uint8 Temperature = 0;
 332              		.loc 1 290 0
 333 0022 0023     		movs	r3, #0
 334 0024 8DF86730 		strb	r3, [sp, #103]
 291:main.c        ****     volatile uint16 Humidity = 0;
 335              		.loc 1 291 0
 336 0028 ADF86430 		strh	r3, [sp, #100]	@ movhi
 292:main.c        ****     
 293:main.c        ****     /* Pressure Sensor */
 294:main.c        ****     
 295:main.c        ****     volatile uint16 Pressure = 0;
 337              		.loc 1 295 0
 338 002c ADF86230 		strh	r3, [sp, #98]	@ movhi
 296:main.c        **** 
 297:main.c        ****     /* Magentometer Sensor */
 298:main.c        ****     
 299:main.c        ****     signed short X_Mageneto = 0;
 339              		.loc 1 299 0
 340 0030 ADF86030 		strh	r3, [sp, #96]	@ movhi
 300:main.c        ****     signed short Y_Mageneto = 0;
 341              		.loc 1 300 0
 342 0034 ADF85E30 		strh	r3, [sp, #94]	@ movhi
 301:main.c        ****     signed short Z_Mageneto = 0;
 343              		.loc 1 301 0
 344 0038 ADF85C30 		strh	r3, [sp, #92]	@ movhi
 302:main.c        ****     
 303:main.c        ****     /* Accelerometer and Gyroscope Sensor */
 304:main.c        ****     
 305:main.c        ****     signed short X_Gyro = 0;
 345              		.loc 1 305 0
 346 003c ADF85A30 		strh	r3, [sp, #90]	@ movhi
 306:main.c        ****     signed short Y_Gyro = 0;
 347              		.loc 1 306 0
 348 0040 ADF85830 		strh	r3, [sp, #88]	@ movhi
 307:main.c        ****     signed short Z_Gyro = 0;
 349              		.loc 1 307 0
 350 0044 ADF85630 		strh	r3, [sp, #86]	@ movhi
 308:main.c        ****     
 309:main.c        ****     signed short X_Accelerator = 0;
 351              		.loc 1 309 0
 352 0048 ADF85430 		strh	r3, [sp, #84]	@ movhi
 310:main.c        ****     signed short Y_Accelerator = 0;
 353              		.loc 1 310 0
 354 004c ADF85230 		strh	r3, [sp, #82]	@ movhi
 311:main.c        ****     signed short Z_Accelerator = 0;
 355              		.loc 1 311 0
 356 0050 ADF85030 		strh	r3, [sp, #80]	@ movhi
 312:main.c        ****     
 313:main.c        ****     /* Strings for the values */
 314:main.c        ****     
 315:main.c        ****     char temperature_str[5] = {0};
 357              		.loc 1 315 0
ARM GAS  C:\Users\Hesham\AppData\Local\Temp\ccjHmKIb.s 			page 13


 358 0054 1293     		str	r3, [sp, #72]
 359 0056 8DF84C30 		strb	r3, [sp, #76]
 316:main.c        ****     char Humidity_str[5] = {0};
 317:main.c        ****     
 318:main.c        ****     char Pressure_str[5] = {0};
 319:main.c        ****     
 320:main.c        ****     char X_Mageneto_str[5] = {0};
 360              		.loc 1 320 0
 361 005a 1093     		str	r3, [sp, #64]
 362 005c 8DF84430 		strb	r3, [sp, #68]
 321:main.c        ****     char Y_Mageneto_str[5] = {0};
 363              		.loc 1 321 0
 364 0060 0E93     		str	r3, [sp, #56]
 365 0062 8DF83C30 		strb	r3, [sp, #60]
 322:main.c        ****     char Z_Mageneto_str[5] = {0};
 366              		.loc 1 322 0
 367 0066 0C93     		str	r3, [sp, #48]
 368 0068 8DF83430 		strb	r3, [sp, #52]
 323:main.c        ****     
 324:main.c        ****     char X_Gyro_str[5] = {0};
 369              		.loc 1 324 0
 370 006c 0A93     		str	r3, [sp, #40]
 371 006e 8DF82C30 		strb	r3, [sp, #44]
 325:main.c        ****     char Y_Gyro_str[5] = {0};
 372              		.loc 1 325 0
 373 0072 0893     		str	r3, [sp, #32]
 374 0074 8DF82430 		strb	r3, [sp, #36]
 326:main.c        ****     char Z_Gyro_str[5] = {0};
 375              		.loc 1 326 0
 376 0078 0693     		str	r3, [sp, #24]
 377 007a 8DF81C30 		strb	r3, [sp, #28]
 327:main.c        ****     
 328:main.c        ****     char X_Accelerator_str[5] = {0};
 378              		.loc 1 328 0
 379 007e 0493     		str	r3, [sp, #16]
 380 0080 8DF81430 		strb	r3, [sp, #20]
 329:main.c        ****     char Y_Accelerator_str[5] = {0};
 381              		.loc 1 329 0
 382 0084 0293     		str	r3, [sp, #8]
 383 0086 8DF80C30 		strb	r3, [sp, #12]
 330:main.c        ****     char Z_Accelerator_str[5] = {0};
 384              		.loc 1 330 0
 385 008a 0093     		str	r3, [sp]
 386 008c 8DF80430 		strb	r3, [sp, #4]
 387              	.L20:
 331:main.c        ****     
 332:main.c        ****     for(;;)
 333:main.c        ****     {
 334:main.c        ****         Temperature = HTS221_Read_Temperature();
 388              		.loc 1 334 0 discriminator 1
 389 0090 FFF7FEFF 		bl	HTS221_Read_Temperature
 390              	.LVL32:
 391 0094 8DF86700 		strb	r0, [sp, #103]
 335:main.c        ****  
 336:main.c        ****         Humidity = HTS221_Read_Humidity();
 392              		.loc 1 336 0 discriminator 1
 393 0098 FFF7FEFF 		bl	HTS221_Read_Humidity
ARM GAS  C:\Users\Hesham\AppData\Local\Temp\ccjHmKIb.s 			page 14


 394              	.LVL33:
 395 009c ADF86400 		strh	r0, [sp, #100]	@ movhi
 337:main.c        **** 
 338:main.c        ****         Pressure = LPS25H_Read_PRESSURE();
 396              		.loc 1 338 0 discriminator 1
 397 00a0 FFF7FEFF 		bl	LPS25H_Read_PRESSURE
 398              	.LVL34:
 399 00a4 ADF86200 		strh	r0, [sp, #98]	@ movhi
 339:main.c        ****   
 340:main.c        ****         LIS3MDL_Read_Magnetiometer(&X_Mageneto,&Y_Mageneto,&Z_Mageneto);
 400              		.loc 1 340 0 discriminator 1
 401 00a8 18A8     		add	r0, sp, #96
 402 00aa 0DF15E01 		add	r1, sp, #94
 403 00ae 17AA     		add	r2, sp, #92
 404 00b0 FFF7FEFF 		bl	LIS3MDL_Read_Magnetiometer
 405              	.LVL35:
 341:main.c        **** 
 342:main.c        ****         LSM6DS0_Read_Gyrometer(&X_Gyro,&Y_Gyro ,&Z_Gyro);
 406              		.loc 1 342 0 discriminator 1
 407 00b4 0DF15A00 		add	r0, sp, #90
 408 00b8 16A9     		add	r1, sp, #88
 409 00ba 0DF15602 		add	r2, sp, #86
 410 00be FFF7FEFF 		bl	LSM6DS0_Read_Gyrometer
 411              	.LVL36:
 343:main.c        ****         
 344:main.c        ****         LSM6DS0_Read_Acelerometer(&X_Accelerator ,&Y_Accelerator,&Z_Accelerator);
 412              		.loc 1 344 0 discriminator 1
 413 00c2 15A8     		add	r0, sp, #84
 414 00c4 0DF15201 		add	r1, sp, #82
 415 00c8 14AA     		add	r2, sp, #80
 416 00ca FFF7FEFF 		bl	LSM6DS0_Read_Acelerometer
 417              	.LVL37:
 345:main.c        **** 
 346:main.c        ****         
 347:main.c        ****         
 348:main.c        ****         i8ToString(Temperature, temperature_str);
 418              		.loc 1 348 0 discriminator 1
 419 00ce 9DF86700 		ldrb	r0, [sp, #103]	@ zero_extendqisi2
 420 00d2 40B2     		sxtb	r0, r0
 421 00d4 12A9     		add	r1, sp, #72
 422 00d6 FFF7FEFF 		bl	i8ToString
 423              	.LVL38:
 349:main.c        ****         UART_1_PutString("\nTemperature : ");
 424              		.loc 1 349 0 discriminator 1
 425 00da 3848     		ldr	r0, .L22
 426 00dc FFF7FEFF 		bl	UART_1_PutString
 427              	.LVL39:
 350:main.c        ****         UART_1_PutString(temperature_str);
 428              		.loc 1 350 0 discriminator 1
 429 00e0 12A8     		add	r0, sp, #72
 430 00e2 FFF7FEFF 		bl	UART_1_PutString
 431              	.LVL40:
 351:main.c        **** 
 352:main.c        ****         
 353:main.c        ****         i16ToString(X_Mageneto, X_Mageneto_str);
 432              		.loc 1 353 0 discriminator 1
 433 00e6 BDF96000 		ldrsh	r0, [sp, #96]
ARM GAS  C:\Users\Hesham\AppData\Local\Temp\ccjHmKIb.s 			page 15


 434 00ea 10A9     		add	r1, sp, #64
 435 00ec FFF7FEFF 		bl	i16ToString
 436              	.LVL41:
 354:main.c        ****         UART_1_PutString("\nX_Mageneto : ");
 437              		.loc 1 354 0 discriminator 1
 438 00f0 3348     		ldr	r0, .L22+4
 439 00f2 FFF7FEFF 		bl	UART_1_PutString
 440              	.LVL42:
 355:main.c        ****         UART_1_PutString(X_Mageneto_str);               
 441              		.loc 1 355 0 discriminator 1
 442 00f6 10A8     		add	r0, sp, #64
 443 00f8 FFF7FEFF 		bl	UART_1_PutString
 444              	.LVL43:
 356:main.c        ****            
 357:main.c        ****         i16ToString(Y_Mageneto, Y_Mageneto_str);
 445              		.loc 1 357 0 discriminator 1
 446 00fc BDF95E00 		ldrsh	r0, [sp, #94]
 447 0100 0EA9     		add	r1, sp, #56
 448 0102 FFF7FEFF 		bl	i16ToString
 449              	.LVL44:
 358:main.c        ****         UART_1_PutString("\nY_Mageneto : ");
 450              		.loc 1 358 0 discriminator 1
 451 0106 2F48     		ldr	r0, .L22+8
 452 0108 FFF7FEFF 		bl	UART_1_PutString
 453              	.LVL45:
 359:main.c        ****         UART_1_PutString(Y_Mageneto_str);
 454              		.loc 1 359 0 discriminator 1
 455 010c 0EA8     		add	r0, sp, #56
 456 010e FFF7FEFF 		bl	UART_1_PutString
 457              	.LVL46:
 360:main.c        ****          
 361:main.c        ****         i16ToString(Z_Mageneto, Z_Mageneto_str);
 458              		.loc 1 361 0 discriminator 1
 459 0112 BDF95C00 		ldrsh	r0, [sp, #92]
 460 0116 0CA9     		add	r1, sp, #48
 461 0118 FFF7FEFF 		bl	i16ToString
 462              	.LVL47:
 362:main.c        ****         UART_1_PutString("\nZ_Mageneto : ");
 463              		.loc 1 362 0 discriminator 1
 464 011c 2A48     		ldr	r0, .L22+12
 465 011e FFF7FEFF 		bl	UART_1_PutString
 466              	.LVL48:
 363:main.c        ****         UART_1_PutString(Z_Mageneto_str); 
 467              		.loc 1 363 0 discriminator 1
 468 0122 0CA8     		add	r0, sp, #48
 469 0124 FFF7FEFF 		bl	UART_1_PutString
 470              	.LVL49:
 364:main.c        ****                 
 365:main.c        ****         i16ToString(X_Gyro, X_Gyro_str);
 471              		.loc 1 365 0 discriminator 1
 472 0128 BDF95A00 		ldrsh	r0, [sp, #90]
 473 012c 0AA9     		add	r1, sp, #40
 474 012e FFF7FEFF 		bl	i16ToString
 475              	.LVL50:
 366:main.c        ****         UART_1_PutString("\nX_Gyro : ");
 476              		.loc 1 366 0 discriminator 1
 477 0132 2648     		ldr	r0, .L22+16
ARM GAS  C:\Users\Hesham\AppData\Local\Temp\ccjHmKIb.s 			page 16


 478 0134 FFF7FEFF 		bl	UART_1_PutString
 479              	.LVL51:
 367:main.c        ****         UART_1_PutString(X_Gyro_str); 
 480              		.loc 1 367 0 discriminator 1
 481 0138 0AA8     		add	r0, sp, #40
 482 013a FFF7FEFF 		bl	UART_1_PutString
 483              	.LVL52:
 368:main.c        ****                         
 369:main.c        ****         i16ToString(Y_Gyro, Y_Gyro_str);
 484              		.loc 1 369 0 discriminator 1
 485 013e BDF95800 		ldrsh	r0, [sp, #88]
 486 0142 08A9     		add	r1, sp, #32
 487 0144 FFF7FEFF 		bl	i16ToString
 488              	.LVL53:
 370:main.c        ****         UART_1_PutString("\nY_Gyro : ");
 489              		.loc 1 370 0 discriminator 1
 490 0148 2148     		ldr	r0, .L22+20
 491 014a FFF7FEFF 		bl	UART_1_PutString
 492              	.LVL54:
 371:main.c        ****         UART_1_PutString(Y_Gyro_str); 
 493              		.loc 1 371 0 discriminator 1
 494 014e 08A8     		add	r0, sp, #32
 495 0150 FFF7FEFF 		bl	UART_1_PutString
 496              	.LVL55:
 372:main.c        ****                         
 373:main.c        ****         i16ToString(Z_Gyro, Z_Gyro_str);
 497              		.loc 1 373 0 discriminator 1
 498 0154 BDF95600 		ldrsh	r0, [sp, #86]
 499 0158 06A9     		add	r1, sp, #24
 500 015a FFF7FEFF 		bl	i16ToString
 501              	.LVL56:
 374:main.c        ****         UART_1_PutString("\nZ_Gyro : ");
 502              		.loc 1 374 0 discriminator 1
 503 015e 1D48     		ldr	r0, .L22+24
 504 0160 FFF7FEFF 		bl	UART_1_PutString
 505              	.LVL57:
 375:main.c        ****         UART_1_PutString(Z_Gyro_str); 
 506              		.loc 1 375 0 discriminator 1
 507 0164 06A8     		add	r0, sp, #24
 508 0166 FFF7FEFF 		bl	UART_1_PutString
 509              	.LVL58:
 376:main.c        ****                 
 377:main.c        ****         i16ToString(X_Accelerator, X_Accelerator_str);
 510              		.loc 1 377 0 discriminator 1
 511 016a BDF95400 		ldrsh	r0, [sp, #84]
 512 016e 04A9     		add	r1, sp, #16
 513 0170 FFF7FEFF 		bl	i16ToString
 514              	.LVL59:
 378:main.c        ****         UART_1_PutString("\nX_Accelerator : ");
 515              		.loc 1 378 0 discriminator 1
 516 0174 1848     		ldr	r0, .L22+28
 517 0176 FFF7FEFF 		bl	UART_1_PutString
 518              	.LVL60:
 379:main.c        ****         UART_1_PutString(X_Accelerator_str); 
 519              		.loc 1 379 0 discriminator 1
 520 017a 04A8     		add	r0, sp, #16
 521 017c FFF7FEFF 		bl	UART_1_PutString
ARM GAS  C:\Users\Hesham\AppData\Local\Temp\ccjHmKIb.s 			page 17


 522              	.LVL61:
 380:main.c        ****                         
 381:main.c        ****         i16ToString(Y_Accelerator, Y_Accelerator_str);
 523              		.loc 1 381 0 discriminator 1
 524 0180 BDF95200 		ldrsh	r0, [sp, #82]
 525 0184 02A9     		add	r1, sp, #8
 526 0186 FFF7FEFF 		bl	i16ToString
 527              	.LVL62:
 382:main.c        ****         UART_1_PutString("\nY_Accelerator : ");
 528              		.loc 1 382 0 discriminator 1
 529 018a 1448     		ldr	r0, .L22+32
 530 018c FFF7FEFF 		bl	UART_1_PutString
 531              	.LVL63:
 383:main.c        ****         UART_1_PutString(Y_Accelerator_str); 
 532              		.loc 1 383 0 discriminator 1
 533 0190 02A8     		add	r0, sp, #8
 534 0192 FFF7FEFF 		bl	UART_1_PutString
 535              	.LVL64:
 384:main.c        ****                         
 385:main.c        ****         i16ToString(Z_Accelerator, Z_Accelerator_str);
 536              		.loc 1 385 0 discriminator 1
 537 0196 BDF95000 		ldrsh	r0, [sp, #80]
 538 019a 6946     		mov	r1, sp
 539 019c FFF7FEFF 		bl	i16ToString
 540              	.LVL65:
 386:main.c        ****         UART_1_PutString("\nZ_Accelerator : ");
 541              		.loc 1 386 0 discriminator 1
 542 01a0 0F48     		ldr	r0, .L22+36
 543 01a2 FFF7FEFF 		bl	UART_1_PutString
 544              	.LVL66:
 387:main.c        ****         UART_1_PutString(Z_Accelerator_str); 
 545              		.loc 1 387 0 discriminator 1
 546 01a6 6846     		mov	r0, sp
 547 01a8 FFF7FEFF 		bl	UART_1_PutString
 548              	.LVL67:
 388:main.c        ****                 
 389:main.c        ****         //UART_Send_8("Temperature", Temperature);
 390:main.c        **** 
 391:main.c        ****         //UART_Send_8("Humidity", Humidity);
 392:main.c        ****     
 393:main.c        ****         //UART_Send_8("Pressure", Pressure);
 394:main.c        **** /*        
 395:main.c        ****         UART_Send_16("Magnetometer X",X_Mageneto);
 396:main.c        ****         UART_Send_16("Magnetometer Y",Y_Mageneto);
 397:main.c        ****         UART_Send_16("Magnetometer Z",Z_Mageneto);
 398:main.c        ****         
 399:main.c        ****         UART_Send_16("Gyrometer X",X_Gyro);
 400:main.c        ****         UART_Send_16("Gyrometer Y",Y_Gyro);
 401:main.c        ****         UART_Send_16("Gyrometer Z",Z_Gyro); 
 402:main.c        ****         
 403:main.c        ****         
 404:main.c        ****         UART_Send_16("Acelerometer X",X_Accelerator);
 405:main.c        ****         UART_Send_16("Acelerometer Y",Y_Accelerator);
 406:main.c        ****         UART_Send_16("Acelerometer Z",Z_Accelerator);    
 407:main.c        **** */
 408:main.c        ****         LED_On();
 549              		.loc 1 408 0 discriminator 1
ARM GAS  C:\Users\Hesham\AppData\Local\Temp\ccjHmKIb.s 			page 18


 550 01ac FFF7FEFF 		bl	LED_On
 551              	.LVL68:
 409:main.c        ****         
 410:main.c        ****         CyDelay(10000u);
 552              		.loc 1 410 0 discriminator 1
 553 01b0 42F21070 		movw	r0, #10000
 554 01b4 FFF7FEFF 		bl	CyDelay
 555              	.LVL69:
 411:main.c        ****    
 412:main.c        ****         
 413:main.c        ****     }
 556              		.loc 1 413 0 discriminator 1
 557 01b8 6AE7     		b	.L20
 558              	.L23:
 559 01ba 00BF     		.align	2
 560              	.L22:
 561 01bc 00000000 		.word	.LC1
 562 01c0 10000000 		.word	.LC2
 563 01c4 20000000 		.word	.LC3
 564 01c8 30000000 		.word	.LC4
 565 01cc 40000000 		.word	.LC5
 566 01d0 4C000000 		.word	.LC6
 567 01d4 58000000 		.word	.LC7
 568 01d8 64000000 		.word	.LC8
 569 01dc 78000000 		.word	.LC9
 570 01e0 8C000000 		.word	.LC10
 571              		.cfi_endproc
 572              	.LFE73:
 573              		.size	main, .-main
 574              		.section	.rodata
 575              		.align	2
 576              		.set	.LANCHOR0,. + 0
 577              	.LC0:
 578 0000 64       		.byte	100
 579 0001 0A       		.byte	10
 580 0002 01       		.byte	1
 581 0003 00       		.section	.rodata.str1.4,"aMS",%progbits,1
 582              		.align	2
 583              	.LC1:
 584 0000 0A54656D 		.ascii	"\012Temperature : \000"
 584      70657261 
 584      74757265 
 584      203A2000 
 585              	.LC2:
 586 0010 0A585F4D 		.ascii	"\012X_Mageneto : \000"
 586      6167656E 
 586      65746F20 
 586      3A2000
 587 001f 00       		.space	1
 588              	.LC3:
 589 0020 0A595F4D 		.ascii	"\012Y_Mageneto : \000"
 589      6167656E 
 589      65746F20 
 589      3A2000
 590 002f 00       		.space	1
 591              	.LC4:
 592 0030 0A5A5F4D 		.ascii	"\012Z_Mageneto : \000"
ARM GAS  C:\Users\Hesham\AppData\Local\Temp\ccjHmKIb.s 			page 19


 592      6167656E 
 592      65746F20 
 592      3A2000
 593 003f 00       		.space	1
 594              	.LC5:
 595 0040 0A585F47 		.ascii	"\012X_Gyro : \000"
 595      79726F20 
 595      3A2000
 596 004b 00       		.space	1
 597              	.LC6:
 598 004c 0A595F47 		.ascii	"\012Y_Gyro : \000"
 598      79726F20 
 598      3A2000
 599 0057 00       		.space	1
 600              	.LC7:
 601 0058 0A5A5F47 		.ascii	"\012Z_Gyro : \000"
 601      79726F20 
 601      3A2000
 602 0063 00       		.space	1
 603              	.LC8:
 604 0064 0A585F41 		.ascii	"\012X_Accelerator : \000"
 604      6363656C 
 604      65726174 
 604      6F72203A 
 604      2000
 605 0076 0000     		.space	2
 606              	.LC9:
 607 0078 0A595F41 		.ascii	"\012Y_Accelerator : \000"
 607      6363656C 
 607      65726174 
 607      6F72203A 
 607      2000
 608 008a 0000     		.space	2
 609              	.LC10:
 610 008c 0A5A5F41 		.ascii	"\012Z_Accelerator : \000"
 610      6363656C 
 610      65726174 
 610      6F72203A 
 610      2000
 611 009e 0000     		.text
 612              	.Letext0:
 613              		.file 2 "c:\\program files (x86)\\cypress\\psoc creator\\4.0\\psoc creator\\import\\gnu\\arm\\4.9.
 614              		.file 3 "c:\\program files (x86)\\cypress\\psoc creator\\4.0\\psoc creator\\import\\gnu\\arm\\4.9.
 615              		.file 4 "Generated_Source\\PSoC5/cytypes.h"
 616              		.file 5 "Generated_Source\\PSoC5/UART_1.h"
 617              		.file 6 "Generated_Source\\PSoC5/PWM_1.h"
 618              		.file 7 "Generated_Source\\PSoC5/I2C_1.h"
 619              		.file 8 "LSM6DS0AccelerometerGyroscopeSensor.h"
 620              		.file 9 "HTS221TempHumiditySensor.h"
 621              		.file 10 "LIS3MDLMagnitometerSensor.h"
 622              		.file 11 "LPS25HPressureSensor.h"
 623              		.file 12 "Generated_Source\\PSoC5/CyLib.h"
 624              		.file 13 "Generated_Source\\PSoC5/core_cm3.h"