ARM GAS  C:\Users\Hesham\AppData\Local\Temp\cc1wSMNs.s 			page 1


   1              		.syntax unified
   2              		.cpu cortex-m3
   3              		.fpu softvfp
   4              		.eabi_attribute 20, 1
   5              		.eabi_attribute 21, 1
   6              		.eabi_attribute 23, 3
   7              		.eabi_attribute 24, 1
   8              		.eabi_attribute 25, 1
   9              		.eabi_attribute 26, 1
  10              		.eabi_attribute 30, 1
  11              		.eabi_attribute 34, 1
  12              		.eabi_attribute 18, 4
  13              		.thumb
  14              		.file	"UART.c"
  15              		.text
  16              	.Ltext0:
  17              		.cfi_sections	.debug_frame
  18              		.section	.text.UART_Enable,"ax",%progbits
  19              		.align	2
  20              		.global	UART_Enable
  21              		.thumb
  22              		.thumb_func
  23              		.type	UART_Enable, %function
  24              	UART_Enable:
  25              	.LFB2:
  26              		.file 1 "Generated_Source\\PSoC5\\UART.c"
   1:Generated_Source\PSoC5/UART.c **** /*******************************************************************************
   2:Generated_Source\PSoC5/UART.c **** * File Name: UART.c
   3:Generated_Source\PSoC5/UART.c **** * Version 2.50
   4:Generated_Source\PSoC5/UART.c **** *
   5:Generated_Source\PSoC5/UART.c **** * Description:
   6:Generated_Source\PSoC5/UART.c **** *  This file provides all API functionality of the UART component
   7:Generated_Source\PSoC5/UART.c **** *
   8:Generated_Source\PSoC5/UART.c **** * Note:
   9:Generated_Source\PSoC5/UART.c **** *
  10:Generated_Source\PSoC5/UART.c **** ********************************************************************************
  11:Generated_Source\PSoC5/UART.c **** * Copyright 2008-2015, Cypress Semiconductor Corporation.  All rights reserved.
  12:Generated_Source\PSoC5/UART.c **** * You may use this file only in accordance with the license, terms, conditions,
  13:Generated_Source\PSoC5/UART.c **** * disclaimers, and limitations in the end user license agreement accompanying
  14:Generated_Source\PSoC5/UART.c **** * the software package with which this file was provided.
  15:Generated_Source\PSoC5/UART.c **** *******************************************************************************/
  16:Generated_Source\PSoC5/UART.c **** 
  17:Generated_Source\PSoC5/UART.c **** #include "UART.h"
  18:Generated_Source\PSoC5/UART.c **** #if (UART_INTERNAL_CLOCK_USED)
  19:Generated_Source\PSoC5/UART.c ****     #include "UART_IntClock.h"
  20:Generated_Source\PSoC5/UART.c **** #endif /* End UART_INTERNAL_CLOCK_USED */
  21:Generated_Source\PSoC5/UART.c **** 
  22:Generated_Source\PSoC5/UART.c **** 
  23:Generated_Source\PSoC5/UART.c **** /***************************************
  24:Generated_Source\PSoC5/UART.c **** * Global data allocation
  25:Generated_Source\PSoC5/UART.c **** ***************************************/
  26:Generated_Source\PSoC5/UART.c **** 
  27:Generated_Source\PSoC5/UART.c **** uint8 UART_initVar = 0u;
  28:Generated_Source\PSoC5/UART.c **** 
  29:Generated_Source\PSoC5/UART.c **** #if (UART_TX_INTERRUPT_ENABLED && UART_TX_ENABLED)
  30:Generated_Source\PSoC5/UART.c ****     volatile uint8 UART_txBuffer[UART_TX_BUFFER_SIZE];
  31:Generated_Source\PSoC5/UART.c ****     volatile uint8 UART_txBufferRead = 0u;
ARM GAS  C:\Users\Hesham\AppData\Local\Temp\cc1wSMNs.s 			page 2


  32:Generated_Source\PSoC5/UART.c ****     uint8 UART_txBufferWrite = 0u;
  33:Generated_Source\PSoC5/UART.c **** #endif /* (UART_TX_INTERRUPT_ENABLED && UART_TX_ENABLED) */
  34:Generated_Source\PSoC5/UART.c **** 
  35:Generated_Source\PSoC5/UART.c **** #if (UART_RX_INTERRUPT_ENABLED && (UART_RX_ENABLED || UART_HD_ENABLED))
  36:Generated_Source\PSoC5/UART.c ****     uint8 UART_errorStatus = 0u;
  37:Generated_Source\PSoC5/UART.c ****     volatile uint8 UART_rxBuffer[UART_RX_BUFFER_SIZE];
  38:Generated_Source\PSoC5/UART.c ****     volatile uint8 UART_rxBufferRead  = 0u;
  39:Generated_Source\PSoC5/UART.c ****     volatile uint8 UART_rxBufferWrite = 0u;
  40:Generated_Source\PSoC5/UART.c ****     volatile uint8 UART_rxBufferLoopDetect = 0u;
  41:Generated_Source\PSoC5/UART.c ****     volatile uint8 UART_rxBufferOverflow   = 0u;
  42:Generated_Source\PSoC5/UART.c ****     #if (UART_RXHW_ADDRESS_ENABLED)
  43:Generated_Source\PSoC5/UART.c ****         volatile uint8 UART_rxAddressMode = UART_RX_ADDRESS_MODE;
  44:Generated_Source\PSoC5/UART.c ****         volatile uint8 UART_rxAddressDetected = 0u;
  45:Generated_Source\PSoC5/UART.c ****     #endif /* (UART_RXHW_ADDRESS_ENABLED) */
  46:Generated_Source\PSoC5/UART.c **** #endif /* (UART_RX_INTERRUPT_ENABLED && (UART_RX_ENABLED || UART_HD_ENABLED)) */
  47:Generated_Source\PSoC5/UART.c **** 
  48:Generated_Source\PSoC5/UART.c **** 
  49:Generated_Source\PSoC5/UART.c **** /*******************************************************************************
  50:Generated_Source\PSoC5/UART.c **** * Function Name: UART_Start
  51:Generated_Source\PSoC5/UART.c **** ********************************************************************************
  52:Generated_Source\PSoC5/UART.c **** *
  53:Generated_Source\PSoC5/UART.c **** * Summary:
  54:Generated_Source\PSoC5/UART.c **** *  This is the preferred method to begin component operation.
  55:Generated_Source\PSoC5/UART.c **** *  UART_Start() sets the initVar variable, calls the
  56:Generated_Source\PSoC5/UART.c **** *  UART_Init() function, and then calls the
  57:Generated_Source\PSoC5/UART.c **** *  UART_Enable() function.
  58:Generated_Source\PSoC5/UART.c **** *
  59:Generated_Source\PSoC5/UART.c **** * Parameters:
  60:Generated_Source\PSoC5/UART.c **** *  None.
  61:Generated_Source\PSoC5/UART.c **** *
  62:Generated_Source\PSoC5/UART.c **** * Return:
  63:Generated_Source\PSoC5/UART.c **** *  None.
  64:Generated_Source\PSoC5/UART.c **** *
  65:Generated_Source\PSoC5/UART.c **** * Global variables:
  66:Generated_Source\PSoC5/UART.c **** *  The UART_intiVar variable is used to indicate initial
  67:Generated_Source\PSoC5/UART.c **** *  configuration of this component. The variable is initialized to zero (0u)
  68:Generated_Source\PSoC5/UART.c **** *  and set to one (1u) the first time UART_Start() is called. This
  69:Generated_Source\PSoC5/UART.c **** *  allows for component initialization without re-initialization in all
  70:Generated_Source\PSoC5/UART.c **** *  subsequent calls to the UART_Start() routine.
  71:Generated_Source\PSoC5/UART.c **** *
  72:Generated_Source\PSoC5/UART.c **** * Reentrant:
  73:Generated_Source\PSoC5/UART.c **** *  No.
  74:Generated_Source\PSoC5/UART.c **** *
  75:Generated_Source\PSoC5/UART.c **** *******************************************************************************/
  76:Generated_Source\PSoC5/UART.c **** void UART_Start(void) 
  77:Generated_Source\PSoC5/UART.c **** {
  78:Generated_Source\PSoC5/UART.c ****     /* If not initialized then initialize all required hardware and software */
  79:Generated_Source\PSoC5/UART.c ****     if(UART_initVar == 0u)
  80:Generated_Source\PSoC5/UART.c ****     {
  81:Generated_Source\PSoC5/UART.c ****         UART_Init();
  82:Generated_Source\PSoC5/UART.c ****         UART_initVar = 1u;
  83:Generated_Source\PSoC5/UART.c ****     }
  84:Generated_Source\PSoC5/UART.c **** 
  85:Generated_Source\PSoC5/UART.c ****     UART_Enable();
  86:Generated_Source\PSoC5/UART.c **** }
  87:Generated_Source\PSoC5/UART.c **** 
  88:Generated_Source\PSoC5/UART.c **** 
ARM GAS  C:\Users\Hesham\AppData\Local\Temp\cc1wSMNs.s 			page 3


  89:Generated_Source\PSoC5/UART.c **** /*******************************************************************************
  90:Generated_Source\PSoC5/UART.c **** * Function Name: UART_Init
  91:Generated_Source\PSoC5/UART.c **** ********************************************************************************
  92:Generated_Source\PSoC5/UART.c **** *
  93:Generated_Source\PSoC5/UART.c **** * Summary:
  94:Generated_Source\PSoC5/UART.c **** *  Initializes or restores the component according to the customizer Configure
  95:Generated_Source\PSoC5/UART.c **** *  dialog settings. It is not necessary to call UART_Init() because
  96:Generated_Source\PSoC5/UART.c **** *  the UART_Start() API calls this function and is the preferred
  97:Generated_Source\PSoC5/UART.c **** *  method to begin component operation.
  98:Generated_Source\PSoC5/UART.c **** *
  99:Generated_Source\PSoC5/UART.c **** * Parameters:
 100:Generated_Source\PSoC5/UART.c **** *  None.
 101:Generated_Source\PSoC5/UART.c **** *
 102:Generated_Source\PSoC5/UART.c **** * Return:
 103:Generated_Source\PSoC5/UART.c **** *  None.
 104:Generated_Source\PSoC5/UART.c **** *
 105:Generated_Source\PSoC5/UART.c **** *******************************************************************************/
 106:Generated_Source\PSoC5/UART.c **** void UART_Init(void) 
 107:Generated_Source\PSoC5/UART.c **** {
 108:Generated_Source\PSoC5/UART.c ****     #if(UART_RX_ENABLED || UART_HD_ENABLED)
 109:Generated_Source\PSoC5/UART.c **** 
 110:Generated_Source\PSoC5/UART.c ****         #if (UART_RX_INTERRUPT_ENABLED)
 111:Generated_Source\PSoC5/UART.c ****             /* Set RX interrupt vector and priority */
 112:Generated_Source\PSoC5/UART.c ****             (void) CyIntSetVector(UART_RX_VECT_NUM, &UART_RXISR);
 113:Generated_Source\PSoC5/UART.c ****             CyIntSetPriority(UART_RX_VECT_NUM, UART_RX_PRIOR_NUM);
 114:Generated_Source\PSoC5/UART.c ****             UART_errorStatus = 0u;
 115:Generated_Source\PSoC5/UART.c ****         #endif /* (UART_RX_INTERRUPT_ENABLED) */
 116:Generated_Source\PSoC5/UART.c **** 
 117:Generated_Source\PSoC5/UART.c ****         #if (UART_RXHW_ADDRESS_ENABLED)
 118:Generated_Source\PSoC5/UART.c ****             UART_SetRxAddressMode(UART_RX_ADDRESS_MODE);
 119:Generated_Source\PSoC5/UART.c ****             UART_SetRxAddress1(UART_RX_HW_ADDRESS1);
 120:Generated_Source\PSoC5/UART.c ****             UART_SetRxAddress2(UART_RX_HW_ADDRESS2);
 121:Generated_Source\PSoC5/UART.c ****         #endif /* End UART_RXHW_ADDRESS_ENABLED */
 122:Generated_Source\PSoC5/UART.c **** 
 123:Generated_Source\PSoC5/UART.c ****         /* Init Count7 period */
 124:Generated_Source\PSoC5/UART.c ****         UART_RXBITCTR_PERIOD_REG = UART_RXBITCTR_INIT;
 125:Generated_Source\PSoC5/UART.c ****         /* Configure the Initial RX interrupt mask */
 126:Generated_Source\PSoC5/UART.c ****         UART_RXSTATUS_MASK_REG  = UART_INIT_RX_INTERRUPTS_MASK;
 127:Generated_Source\PSoC5/UART.c ****     #endif /* End UART_RX_ENABLED || UART_HD_ENABLED*/
 128:Generated_Source\PSoC5/UART.c **** 
 129:Generated_Source\PSoC5/UART.c ****     #if(UART_TX_ENABLED)
 130:Generated_Source\PSoC5/UART.c ****         #if (UART_TX_INTERRUPT_ENABLED)
 131:Generated_Source\PSoC5/UART.c ****             /* Set TX interrupt vector and priority */
 132:Generated_Source\PSoC5/UART.c ****             (void) CyIntSetVector(UART_TX_VECT_NUM, &UART_TXISR);
 133:Generated_Source\PSoC5/UART.c ****             CyIntSetPriority(UART_TX_VECT_NUM, UART_TX_PRIOR_NUM);
 134:Generated_Source\PSoC5/UART.c ****         #endif /* (UART_TX_INTERRUPT_ENABLED) */
 135:Generated_Source\PSoC5/UART.c **** 
 136:Generated_Source\PSoC5/UART.c ****         /* Write Counter Value for TX Bit Clk Generator*/
 137:Generated_Source\PSoC5/UART.c ****         #if (UART_TXCLKGEN_DP)
 138:Generated_Source\PSoC5/UART.c ****             UART_TXBITCLKGEN_CTR_REG = UART_BIT_CENTER;
 139:Generated_Source\PSoC5/UART.c ****             UART_TXBITCLKTX_COMPLETE_REG = ((UART_NUMBER_OF_DATA_BITS +
 140:Generated_Source\PSoC5/UART.c ****                         UART_NUMBER_OF_START_BIT) * UART_OVER_SAMPLE_COUNT) - 1u;
 141:Generated_Source\PSoC5/UART.c ****         #else
 142:Generated_Source\PSoC5/UART.c ****             UART_TXBITCTR_PERIOD_REG = ((UART_NUMBER_OF_DATA_BITS +
 143:Generated_Source\PSoC5/UART.c ****                         UART_NUMBER_OF_START_BIT) * UART_OVER_SAMPLE_8) - 1u;
 144:Generated_Source\PSoC5/UART.c ****         #endif /* End UART_TXCLKGEN_DP */
 145:Generated_Source\PSoC5/UART.c **** 
ARM GAS  C:\Users\Hesham\AppData\Local\Temp\cc1wSMNs.s 			page 4


 146:Generated_Source\PSoC5/UART.c ****         /* Configure the Initial TX interrupt mask */
 147:Generated_Source\PSoC5/UART.c ****         #if (UART_TX_INTERRUPT_ENABLED)
 148:Generated_Source\PSoC5/UART.c ****             UART_TXSTATUS_MASK_REG = UART_TX_STS_FIFO_EMPTY;
 149:Generated_Source\PSoC5/UART.c ****         #else
 150:Generated_Source\PSoC5/UART.c ****             UART_TXSTATUS_MASK_REG = UART_INIT_TX_INTERRUPTS_MASK;
 151:Generated_Source\PSoC5/UART.c ****         #endif /*End UART_TX_INTERRUPT_ENABLED*/
 152:Generated_Source\PSoC5/UART.c **** 
 153:Generated_Source\PSoC5/UART.c ****     #endif /* End UART_TX_ENABLED */
 154:Generated_Source\PSoC5/UART.c **** 
 155:Generated_Source\PSoC5/UART.c ****     #if(UART_PARITY_TYPE_SW)  /* Write Parity to Control Register */
 156:Generated_Source\PSoC5/UART.c ****         UART_WriteControlRegister( \
 157:Generated_Source\PSoC5/UART.c ****             (UART_ReadControlRegister() & (uint8)~UART_CTRL_PARITY_TYPE_MASK) | \
 158:Generated_Source\PSoC5/UART.c ****             (uint8)(UART_PARITY_TYPE << UART_CTRL_PARITY_TYPE0_SHIFT) );
 159:Generated_Source\PSoC5/UART.c ****     #endif /* End UART_PARITY_TYPE_SW */
 160:Generated_Source\PSoC5/UART.c **** }
 161:Generated_Source\PSoC5/UART.c **** 
 162:Generated_Source\PSoC5/UART.c **** 
 163:Generated_Source\PSoC5/UART.c **** /*******************************************************************************
 164:Generated_Source\PSoC5/UART.c **** * Function Name: UART_Enable
 165:Generated_Source\PSoC5/UART.c **** ********************************************************************************
 166:Generated_Source\PSoC5/UART.c **** *
 167:Generated_Source\PSoC5/UART.c **** * Summary:
 168:Generated_Source\PSoC5/UART.c **** *  Activates the hardware and begins component operation. It is not necessary
 169:Generated_Source\PSoC5/UART.c **** *  to call UART_Enable() because the UART_Start() API
 170:Generated_Source\PSoC5/UART.c **** *  calls this function, which is the preferred method to begin component
 171:Generated_Source\PSoC5/UART.c **** *  operation.
 172:Generated_Source\PSoC5/UART.c **** 
 173:Generated_Source\PSoC5/UART.c **** * Parameters:
 174:Generated_Source\PSoC5/UART.c **** *  None.
 175:Generated_Source\PSoC5/UART.c **** *
 176:Generated_Source\PSoC5/UART.c **** * Return:
 177:Generated_Source\PSoC5/UART.c **** *  None.
 178:Generated_Source\PSoC5/UART.c **** *
 179:Generated_Source\PSoC5/UART.c **** * Global Variables:
 180:Generated_Source\PSoC5/UART.c **** *  UART_rxAddressDetected - set to initial state (0).
 181:Generated_Source\PSoC5/UART.c **** *
 182:Generated_Source\PSoC5/UART.c **** *******************************************************************************/
 183:Generated_Source\PSoC5/UART.c **** void UART_Enable(void) 
 184:Generated_Source\PSoC5/UART.c **** {
  27              		.loc 1 184 0
  28              		.cfi_startproc
  29              		@ args = 0, pretend = 0, frame = 0
  30              		@ frame_needed = 0, uses_anonymous_args = 0
  31 0000 10B5     		push	{r4, lr}
  32              		.cfi_def_cfa_offset 8
  33              		.cfi_offset 4, -8
  34              		.cfi_offset 14, -4
 185:Generated_Source\PSoC5/UART.c ****     uint8 enableInterrupts;
 186:Generated_Source\PSoC5/UART.c ****     enableInterrupts = CyEnterCriticalSection();
  35              		.loc 1 186 0
  36 0002 FFF7FEFF 		bl	CyEnterCriticalSection
  37              	.LVL0:
  38 0006 0446     		mov	r4, r0
  39              	.LVL1:
 187:Generated_Source\PSoC5/UART.c **** 
 188:Generated_Source\PSoC5/UART.c ****     #if (UART_RX_ENABLED || UART_HD_ENABLED)
 189:Generated_Source\PSoC5/UART.c ****         /* RX Counter (Count7) Enable */
ARM GAS  C:\Users\Hesham\AppData\Local\Temp\cc1wSMNs.s 			page 5


 190:Generated_Source\PSoC5/UART.c ****         UART_RXBITCTR_CONTROL_REG |= UART_CNTR_ENABLE;
  40              		.loc 1 190 0
  41 0008 0B4A     		ldr	r2, .L3
  42 000a 1378     		ldrb	r3, [r2]	@ zero_extendqisi2
  43 000c 43F02003 		orr	r3, r3, #32
  44 0010 1370     		strb	r3, [r2]
 191:Generated_Source\PSoC5/UART.c **** 
 192:Generated_Source\PSoC5/UART.c ****         /* Enable the RX Interrupt */
 193:Generated_Source\PSoC5/UART.c ****         UART_RXSTATUS_ACTL_REG  |= UART_INT_ENABLE;
  45              		.loc 1 193 0
  46 0012 A2F20112 		subw	r2, r2, #257
  47 0016 1378     		ldrb	r3, [r2]	@ zero_extendqisi2
  48 0018 43F01003 		orr	r3, r3, #16
  49 001c 1370     		strb	r3, [r2]
 194:Generated_Source\PSoC5/UART.c **** 
 195:Generated_Source\PSoC5/UART.c ****         #if (UART_RX_INTERRUPT_ENABLED)
 196:Generated_Source\PSoC5/UART.c ****             UART_EnableRxInt();
 197:Generated_Source\PSoC5/UART.c **** 
 198:Generated_Source\PSoC5/UART.c ****             #if (UART_RXHW_ADDRESS_ENABLED)
 199:Generated_Source\PSoC5/UART.c ****                 UART_rxAddressDetected = 0u;
 200:Generated_Source\PSoC5/UART.c ****             #endif /* (UART_RXHW_ADDRESS_ENABLED) */
 201:Generated_Source\PSoC5/UART.c ****         #endif /* (UART_RX_INTERRUPT_ENABLED) */
 202:Generated_Source\PSoC5/UART.c ****     #endif /* (UART_RX_ENABLED || UART_HD_ENABLED) */
 203:Generated_Source\PSoC5/UART.c **** 
 204:Generated_Source\PSoC5/UART.c ****     #if(UART_TX_ENABLED)
 205:Generated_Source\PSoC5/UART.c ****         /* TX Counter (DP/Count7) Enable */
 206:Generated_Source\PSoC5/UART.c ****         #if(!UART_TXCLKGEN_DP)
 207:Generated_Source\PSoC5/UART.c ****             UART_TXBITCTR_CONTROL_REG |= UART_CNTR_ENABLE;
 208:Generated_Source\PSoC5/UART.c ****         #endif /* End UART_TXCLKGEN_DP */
 209:Generated_Source\PSoC5/UART.c **** 
 210:Generated_Source\PSoC5/UART.c ****         /* Enable the TX Interrupt */
 211:Generated_Source\PSoC5/UART.c ****         UART_TXSTATUS_ACTL_REG |= UART_INT_ENABLE;
  50              		.loc 1 211 0
  51 001e 02F20312 		addw	r2, r2, #259
  52 0022 1378     		ldrb	r3, [r2]	@ zero_extendqisi2
  53 0024 43F01003 		orr	r3, r3, #16
  54 0028 1370     		strb	r3, [r2]
 212:Generated_Source\PSoC5/UART.c ****         #if (UART_TX_INTERRUPT_ENABLED)
 213:Generated_Source\PSoC5/UART.c ****             UART_ClearPendingTxInt(); /* Clear history of TX_NOT_EMPTY */
 214:Generated_Source\PSoC5/UART.c ****             UART_EnableTxInt();
 215:Generated_Source\PSoC5/UART.c ****         #endif /* (UART_TX_INTERRUPT_ENABLED) */
 216:Generated_Source\PSoC5/UART.c ****      #endif /* (UART_TX_INTERRUPT_ENABLED) */
 217:Generated_Source\PSoC5/UART.c **** 
 218:Generated_Source\PSoC5/UART.c ****     #if (UART_INTERNAL_CLOCK_USED)
 219:Generated_Source\PSoC5/UART.c ****         UART_IntClock_Start();  /* Enable the clock */
  55              		.loc 1 219 0
  56 002a FFF7FEFF 		bl	UART_IntClock_Start
  57              	.LVL2:
 220:Generated_Source\PSoC5/UART.c ****     #endif /* (UART_INTERNAL_CLOCK_USED) */
 221:Generated_Source\PSoC5/UART.c **** 
 222:Generated_Source\PSoC5/UART.c ****     CyExitCriticalSection(enableInterrupts);
  58              		.loc 1 222 0
  59 002e 2046     		mov	r0, r4
  60 0030 FFF7FEFF 		bl	CyExitCriticalSection
  61              	.LVL3:
  62 0034 10BD     		pop	{r4, pc}
  63              	.LVL4:
ARM GAS  C:\Users\Hesham\AppData\Local\Temp\cc1wSMNs.s 			page 6


  64              	.L4:
  65 0036 00BF     		.align	2
  66              	.L3:
  67 0038 99650040 		.word	1073767833
  68              		.cfi_endproc
  69              	.LFE2:
  70              		.size	UART_Enable, .-UART_Enable
  71              		.section	.text.UART_Stop,"ax",%progbits
  72              		.align	2
  73              		.global	UART_Stop
  74              		.thumb
  75              		.thumb_func
  76              		.type	UART_Stop, %function
  77              	UART_Stop:
  78              	.LFB3:
 223:Generated_Source\PSoC5/UART.c **** }
 224:Generated_Source\PSoC5/UART.c **** 
 225:Generated_Source\PSoC5/UART.c **** 
 226:Generated_Source\PSoC5/UART.c **** /*******************************************************************************
 227:Generated_Source\PSoC5/UART.c **** * Function Name: UART_Stop
 228:Generated_Source\PSoC5/UART.c **** ********************************************************************************
 229:Generated_Source\PSoC5/UART.c **** *
 230:Generated_Source\PSoC5/UART.c **** * Summary:
 231:Generated_Source\PSoC5/UART.c **** *  Disables the UART operation.
 232:Generated_Source\PSoC5/UART.c **** *
 233:Generated_Source\PSoC5/UART.c **** * Parameters:
 234:Generated_Source\PSoC5/UART.c **** *  None.
 235:Generated_Source\PSoC5/UART.c **** *
 236:Generated_Source\PSoC5/UART.c **** * Return:
 237:Generated_Source\PSoC5/UART.c **** *  None.
 238:Generated_Source\PSoC5/UART.c **** *
 239:Generated_Source\PSoC5/UART.c **** *******************************************************************************/
 240:Generated_Source\PSoC5/UART.c **** void UART_Stop(void) 
 241:Generated_Source\PSoC5/UART.c **** {
  79              		.loc 1 241 0
  80              		.cfi_startproc
  81              		@ args = 0, pretend = 0, frame = 0
  82              		@ frame_needed = 0, uses_anonymous_args = 0
  83 0000 10B5     		push	{r4, lr}
  84              		.cfi_def_cfa_offset 8
  85              		.cfi_offset 4, -8
  86              		.cfi_offset 14, -4
 242:Generated_Source\PSoC5/UART.c ****     uint8 enableInterrupts;
 243:Generated_Source\PSoC5/UART.c ****     enableInterrupts = CyEnterCriticalSection();
  87              		.loc 1 243 0
  88 0002 FFF7FEFF 		bl	CyEnterCriticalSection
  89              	.LVL5:
  90 0006 0446     		mov	r4, r0
  91              	.LVL6:
 244:Generated_Source\PSoC5/UART.c **** 
 245:Generated_Source\PSoC5/UART.c ****     /* Write Bit Counter Disable */
 246:Generated_Source\PSoC5/UART.c ****     #if (UART_RX_ENABLED || UART_HD_ENABLED)
 247:Generated_Source\PSoC5/UART.c ****         UART_RXBITCTR_CONTROL_REG &= (uint8) ~UART_CNTR_ENABLE;
  92              		.loc 1 247 0
  93 0008 0A4A     		ldr	r2, .L7
  94 000a 1378     		ldrb	r3, [r2]	@ zero_extendqisi2
  95 000c 03F0DF03 		and	r3, r3, #223
ARM GAS  C:\Users\Hesham\AppData\Local\Temp\cc1wSMNs.s 			page 7


  96 0010 1370     		strb	r3, [r2]
 248:Generated_Source\PSoC5/UART.c ****     #endif /* (UART_RX_ENABLED || UART_HD_ENABLED) */
 249:Generated_Source\PSoC5/UART.c **** 
 250:Generated_Source\PSoC5/UART.c ****     #if (UART_TX_ENABLED)
 251:Generated_Source\PSoC5/UART.c ****         #if(!UART_TXCLKGEN_DP)
 252:Generated_Source\PSoC5/UART.c ****             UART_TXBITCTR_CONTROL_REG &= (uint8) ~UART_CNTR_ENABLE;
 253:Generated_Source\PSoC5/UART.c ****         #endif /* (!UART_TXCLKGEN_DP) */
 254:Generated_Source\PSoC5/UART.c ****     #endif /* (UART_TX_ENABLED) */
 255:Generated_Source\PSoC5/UART.c **** 
 256:Generated_Source\PSoC5/UART.c ****     #if (UART_INTERNAL_CLOCK_USED)
 257:Generated_Source\PSoC5/UART.c ****         UART_IntClock_Stop();   /* Disable the clock */
  97              		.loc 1 257 0
  98 0012 FFF7FEFF 		bl	UART_IntClock_Stop
  99              	.LVL7:
 258:Generated_Source\PSoC5/UART.c ****     #endif /* (UART_INTERNAL_CLOCK_USED) */
 259:Generated_Source\PSoC5/UART.c **** 
 260:Generated_Source\PSoC5/UART.c ****     /* Disable internal interrupt component */
 261:Generated_Source\PSoC5/UART.c ****     #if (UART_RX_ENABLED || UART_HD_ENABLED)
 262:Generated_Source\PSoC5/UART.c ****         UART_RXSTATUS_ACTL_REG  &= (uint8) ~UART_INT_ENABLE;
 100              		.loc 1 262 0
 101 0016 084A     		ldr	r2, .L7+4
 102 0018 1378     		ldrb	r3, [r2]	@ zero_extendqisi2
 103 001a 03F0EF03 		and	r3, r3, #239
 104 001e 1370     		strb	r3, [r2]
 263:Generated_Source\PSoC5/UART.c **** 
 264:Generated_Source\PSoC5/UART.c ****         #if (UART_RX_INTERRUPT_ENABLED)
 265:Generated_Source\PSoC5/UART.c ****             UART_DisableRxInt();
 266:Generated_Source\PSoC5/UART.c ****         #endif /* (UART_RX_INTERRUPT_ENABLED) */
 267:Generated_Source\PSoC5/UART.c ****     #endif /* (UART_RX_ENABLED || UART_HD_ENABLED) */
 268:Generated_Source\PSoC5/UART.c **** 
 269:Generated_Source\PSoC5/UART.c ****     #if (UART_TX_ENABLED)
 270:Generated_Source\PSoC5/UART.c ****         UART_TXSTATUS_ACTL_REG &= (uint8) ~UART_INT_ENABLE;
 105              		.loc 1 270 0
 106 0020 02F20312 		addw	r2, r2, #259
 107 0024 1378     		ldrb	r3, [r2]	@ zero_extendqisi2
 108 0026 03F0EF03 		and	r3, r3, #239
 109 002a 1370     		strb	r3, [r2]
 271:Generated_Source\PSoC5/UART.c **** 
 272:Generated_Source\PSoC5/UART.c ****         #if (UART_TX_INTERRUPT_ENABLED)
 273:Generated_Source\PSoC5/UART.c ****             UART_DisableTxInt();
 274:Generated_Source\PSoC5/UART.c ****         #endif /* (UART_TX_INTERRUPT_ENABLED) */
 275:Generated_Source\PSoC5/UART.c ****     #endif /* (UART_TX_ENABLED) */
 276:Generated_Source\PSoC5/UART.c **** 
 277:Generated_Source\PSoC5/UART.c ****     CyExitCriticalSection(enableInterrupts);
 110              		.loc 1 277 0
 111 002c 2046     		mov	r0, r4
 112 002e FFF7FEFF 		bl	CyExitCriticalSection
 113              	.LVL8:
 114 0032 10BD     		pop	{r4, pc}
 115              	.LVL9:
 116              	.L8:
 117              		.align	2
 118              	.L7:
 119 0034 99650040 		.word	1073767833
 120 0038 98640040 		.word	1073767576
 121              		.cfi_endproc
 122              	.LFE3:
ARM GAS  C:\Users\Hesham\AppData\Local\Temp\cc1wSMNs.s 			page 8


 123              		.size	UART_Stop, .-UART_Stop
 124              		.section	.text.UART_ReadControlRegister,"ax",%progbits
 125              		.align	2
 126              		.global	UART_ReadControlRegister
 127              		.thumb
 128              		.thumb_func
 129              		.type	UART_ReadControlRegister, %function
 130              	UART_ReadControlRegister:
 131              	.LFB4:
 278:Generated_Source\PSoC5/UART.c **** }
 279:Generated_Source\PSoC5/UART.c **** 
 280:Generated_Source\PSoC5/UART.c **** 
 281:Generated_Source\PSoC5/UART.c **** /*******************************************************************************
 282:Generated_Source\PSoC5/UART.c **** * Function Name: UART_ReadControlRegister
 283:Generated_Source\PSoC5/UART.c **** ********************************************************************************
 284:Generated_Source\PSoC5/UART.c **** *
 285:Generated_Source\PSoC5/UART.c **** * Summary:
 286:Generated_Source\PSoC5/UART.c **** *  Returns the current value of the control register.
 287:Generated_Source\PSoC5/UART.c **** *
 288:Generated_Source\PSoC5/UART.c **** * Parameters:
 289:Generated_Source\PSoC5/UART.c **** *  None.
 290:Generated_Source\PSoC5/UART.c **** *
 291:Generated_Source\PSoC5/UART.c **** * Return:
 292:Generated_Source\PSoC5/UART.c **** *  Contents of the control register.
 293:Generated_Source\PSoC5/UART.c **** *
 294:Generated_Source\PSoC5/UART.c **** *******************************************************************************/
 295:Generated_Source\PSoC5/UART.c **** uint8 UART_ReadControlRegister(void) 
 296:Generated_Source\PSoC5/UART.c **** {
 132              		.loc 1 296 0
 133              		.cfi_startproc
 134              		@ args = 0, pretend = 0, frame = 0
 135              		@ frame_needed = 0, uses_anonymous_args = 0
 136              		@ link register save eliminated.
 297:Generated_Source\PSoC5/UART.c ****     #if (UART_CONTROL_REG_REMOVED)
 298:Generated_Source\PSoC5/UART.c ****         return(0u);
 299:Generated_Source\PSoC5/UART.c ****     #else
 300:Generated_Source\PSoC5/UART.c ****         return(UART_CONTROL_REG);
 137              		.loc 1 300 0
 138 0000 014B     		ldr	r3, .L10
 139 0002 1878     		ldrb	r0, [r3]	@ zero_extendqisi2
 301:Generated_Source\PSoC5/UART.c ****     #endif /* (UART_CONTROL_REG_REMOVED) */
 302:Generated_Source\PSoC5/UART.c **** }
 140              		.loc 1 302 0
 141 0004 7047     		bx	lr
 142              	.L11:
 143 0006 00BF     		.align	2
 144              	.L10:
 145 0008 7B640040 		.word	1073767547
 146              		.cfi_endproc
 147              	.LFE4:
 148              		.size	UART_ReadControlRegister, .-UART_ReadControlRegister
 149              		.section	.text.UART_WriteControlRegister,"ax",%progbits
 150              		.align	2
 151              		.global	UART_WriteControlRegister
 152              		.thumb
 153              		.thumb_func
 154              		.type	UART_WriteControlRegister, %function
ARM GAS  C:\Users\Hesham\AppData\Local\Temp\cc1wSMNs.s 			page 9


 155              	UART_WriteControlRegister:
 156              	.LFB5:
 303:Generated_Source\PSoC5/UART.c **** 
 304:Generated_Source\PSoC5/UART.c **** 
 305:Generated_Source\PSoC5/UART.c **** /*******************************************************************************
 306:Generated_Source\PSoC5/UART.c **** * Function Name: UART_WriteControlRegister
 307:Generated_Source\PSoC5/UART.c **** ********************************************************************************
 308:Generated_Source\PSoC5/UART.c **** *
 309:Generated_Source\PSoC5/UART.c **** * Summary:
 310:Generated_Source\PSoC5/UART.c **** *  Writes an 8-bit value into the control register
 311:Generated_Source\PSoC5/UART.c **** *
 312:Generated_Source\PSoC5/UART.c **** * Parameters:
 313:Generated_Source\PSoC5/UART.c **** *  control:  control register value
 314:Generated_Source\PSoC5/UART.c **** *
 315:Generated_Source\PSoC5/UART.c **** * Return:
 316:Generated_Source\PSoC5/UART.c **** *  None.
 317:Generated_Source\PSoC5/UART.c **** *
 318:Generated_Source\PSoC5/UART.c **** *******************************************************************************/
 319:Generated_Source\PSoC5/UART.c **** void  UART_WriteControlRegister(uint8 control) 
 320:Generated_Source\PSoC5/UART.c **** {
 157              		.loc 1 320 0
 158              		.cfi_startproc
 159              		@ args = 0, pretend = 0, frame = 0
 160              		@ frame_needed = 0, uses_anonymous_args = 0
 161              		@ link register save eliminated.
 162              	.LVL10:
 321:Generated_Source\PSoC5/UART.c ****     #if (UART_CONTROL_REG_REMOVED)
 322:Generated_Source\PSoC5/UART.c ****         if(0u != control)
 323:Generated_Source\PSoC5/UART.c ****         {
 324:Generated_Source\PSoC5/UART.c ****             /* Suppress compiler warning */
 325:Generated_Source\PSoC5/UART.c ****         }
 326:Generated_Source\PSoC5/UART.c ****     #else
 327:Generated_Source\PSoC5/UART.c ****        UART_CONTROL_REG = control;
 163              		.loc 1 327 0
 164 0000 014B     		ldr	r3, .L13
 165 0002 1870     		strb	r0, [r3]
 166 0004 7047     		bx	lr
 167              	.L14:
 168 0006 00BF     		.align	2
 169              	.L13:
 170 0008 7B640040 		.word	1073767547
 171              		.cfi_endproc
 172              	.LFE5:
 173              		.size	UART_WriteControlRegister, .-UART_WriteControlRegister
 174              		.section	.text.UART_SetRxInterruptMode,"ax",%progbits
 175              		.align	2
 176              		.global	UART_SetRxInterruptMode
 177              		.thumb
 178              		.thumb_func
 179              		.type	UART_SetRxInterruptMode, %function
 180              	UART_SetRxInterruptMode:
 181              	.LFB6:
 328:Generated_Source\PSoC5/UART.c ****     #endif /* (UART_CONTROL_REG_REMOVED) */
 329:Generated_Source\PSoC5/UART.c **** }
 330:Generated_Source\PSoC5/UART.c **** 
 331:Generated_Source\PSoC5/UART.c **** 
 332:Generated_Source\PSoC5/UART.c **** #if(UART_RX_ENABLED || UART_HD_ENABLED)
ARM GAS  C:\Users\Hesham\AppData\Local\Temp\cc1wSMNs.s 			page 10


 333:Generated_Source\PSoC5/UART.c ****     /*******************************************************************************
 334:Generated_Source\PSoC5/UART.c ****     * Function Name: UART_SetRxInterruptMode
 335:Generated_Source\PSoC5/UART.c ****     ********************************************************************************
 336:Generated_Source\PSoC5/UART.c ****     *
 337:Generated_Source\PSoC5/UART.c ****     * Summary:
 338:Generated_Source\PSoC5/UART.c ****     *  Configures the RX interrupt sources enabled.
 339:Generated_Source\PSoC5/UART.c ****     *
 340:Generated_Source\PSoC5/UART.c ****     * Parameters:
 341:Generated_Source\PSoC5/UART.c ****     *  IntSrc:  Bit field containing the RX interrupts to enable. Based on the 
 342:Generated_Source\PSoC5/UART.c ****     *  bit-field arrangement of the status register. This value must be a 
 343:Generated_Source\PSoC5/UART.c ****     *  combination of status register bit-masks shown below:
 344:Generated_Source\PSoC5/UART.c ****     *      UART_RX_STS_FIFO_NOTEMPTY    Interrupt on byte received.
 345:Generated_Source\PSoC5/UART.c ****     *      UART_RX_STS_PAR_ERROR        Interrupt on parity error.
 346:Generated_Source\PSoC5/UART.c ****     *      UART_RX_STS_STOP_ERROR       Interrupt on stop error.
 347:Generated_Source\PSoC5/UART.c ****     *      UART_RX_STS_BREAK            Interrupt on break.
 348:Generated_Source\PSoC5/UART.c ****     *      UART_RX_STS_OVERRUN          Interrupt on overrun error.
 349:Generated_Source\PSoC5/UART.c ****     *      UART_RX_STS_ADDR_MATCH       Interrupt on address match.
 350:Generated_Source\PSoC5/UART.c ****     *      UART_RX_STS_MRKSPC           Interrupt on address detect.
 351:Generated_Source\PSoC5/UART.c ****     *
 352:Generated_Source\PSoC5/UART.c ****     * Return:
 353:Generated_Source\PSoC5/UART.c ****     *  None.
 354:Generated_Source\PSoC5/UART.c ****     *
 355:Generated_Source\PSoC5/UART.c ****     * Theory:
 356:Generated_Source\PSoC5/UART.c ****     *  Enables the output of specific status bits to the interrupt controller
 357:Generated_Source\PSoC5/UART.c ****     *
 358:Generated_Source\PSoC5/UART.c ****     *******************************************************************************/
 359:Generated_Source\PSoC5/UART.c ****     void UART_SetRxInterruptMode(uint8 intSrc) 
 360:Generated_Source\PSoC5/UART.c ****     {
 182              		.loc 1 360 0
 183              		.cfi_startproc
 184              		@ args = 0, pretend = 0, frame = 0
 185              		@ frame_needed = 0, uses_anonymous_args = 0
 186              		@ link register save eliminated.
 187              	.LVL11:
 361:Generated_Source\PSoC5/UART.c ****         UART_RXSTATUS_MASK_REG  = intSrc;
 188              		.loc 1 361 0
 189 0000 014B     		ldr	r3, .L16
 190 0002 1870     		strb	r0, [r3]
 191 0004 7047     		bx	lr
 192              	.L17:
 193 0006 00BF     		.align	2
 194              	.L16:
 195 0008 88640040 		.word	1073767560
 196              		.cfi_endproc
 197              	.LFE6:
 198              		.size	UART_SetRxInterruptMode, .-UART_SetRxInterruptMode
 199              		.section	.text.UART_ReadRxData,"ax",%progbits
 200              		.align	2
 201              		.global	UART_ReadRxData
 202              		.thumb
 203              		.thumb_func
 204              		.type	UART_ReadRxData, %function
 205              	UART_ReadRxData:
 206              	.LFB7:
 362:Generated_Source\PSoC5/UART.c ****     }
 363:Generated_Source\PSoC5/UART.c **** 
 364:Generated_Source\PSoC5/UART.c **** 
ARM GAS  C:\Users\Hesham\AppData\Local\Temp\cc1wSMNs.s 			page 11


 365:Generated_Source\PSoC5/UART.c ****     /*******************************************************************************
 366:Generated_Source\PSoC5/UART.c ****     * Function Name: UART_ReadRxData
 367:Generated_Source\PSoC5/UART.c ****     ********************************************************************************
 368:Generated_Source\PSoC5/UART.c ****     *
 369:Generated_Source\PSoC5/UART.c ****     * Summary:
 370:Generated_Source\PSoC5/UART.c ****     *  Returns the next byte of received data. This function returns data without
 371:Generated_Source\PSoC5/UART.c ****     *  checking the status. You must check the status separately.
 372:Generated_Source\PSoC5/UART.c ****     *
 373:Generated_Source\PSoC5/UART.c ****     * Parameters:
 374:Generated_Source\PSoC5/UART.c ****     *  None.
 375:Generated_Source\PSoC5/UART.c ****     *
 376:Generated_Source\PSoC5/UART.c ****     * Return:
 377:Generated_Source\PSoC5/UART.c ****     *  Received data from RX register
 378:Generated_Source\PSoC5/UART.c ****     *
 379:Generated_Source\PSoC5/UART.c ****     * Global Variables:
 380:Generated_Source\PSoC5/UART.c ****     *  UART_rxBuffer - RAM buffer pointer for save received data.
 381:Generated_Source\PSoC5/UART.c ****     *  UART_rxBufferWrite - cyclic index for write to rxBuffer,
 382:Generated_Source\PSoC5/UART.c ****     *     checked to identify new data.
 383:Generated_Source\PSoC5/UART.c ****     *  UART_rxBufferRead - cyclic index for read from rxBuffer,
 384:Generated_Source\PSoC5/UART.c ****     *     incremented after each byte has been read from buffer.
 385:Generated_Source\PSoC5/UART.c ****     *  UART_rxBufferLoopDetect - cleared if loop condition was detected
 386:Generated_Source\PSoC5/UART.c ****     *     in RX ISR.
 387:Generated_Source\PSoC5/UART.c ****     *
 388:Generated_Source\PSoC5/UART.c ****     * Reentrant:
 389:Generated_Source\PSoC5/UART.c ****     *  No.
 390:Generated_Source\PSoC5/UART.c ****     *
 391:Generated_Source\PSoC5/UART.c ****     *******************************************************************************/
 392:Generated_Source\PSoC5/UART.c ****     uint8 UART_ReadRxData(void) 
 393:Generated_Source\PSoC5/UART.c ****     {
 207              		.loc 1 393 0
 208              		.cfi_startproc
 209              		@ args = 0, pretend = 0, frame = 0
 210              		@ frame_needed = 0, uses_anonymous_args = 0
 211              		@ link register save eliminated.
 394:Generated_Source\PSoC5/UART.c ****         uint8 rxData;
 395:Generated_Source\PSoC5/UART.c **** 
 396:Generated_Source\PSoC5/UART.c ****     #if (UART_RX_INTERRUPT_ENABLED)
 397:Generated_Source\PSoC5/UART.c **** 
 398:Generated_Source\PSoC5/UART.c ****         uint8 locRxBufferRead;
 399:Generated_Source\PSoC5/UART.c ****         uint8 locRxBufferWrite;
 400:Generated_Source\PSoC5/UART.c **** 
 401:Generated_Source\PSoC5/UART.c ****         /* Protect variables that could change on interrupt */
 402:Generated_Source\PSoC5/UART.c ****         UART_DisableRxInt();
 403:Generated_Source\PSoC5/UART.c **** 
 404:Generated_Source\PSoC5/UART.c ****         locRxBufferRead  = UART_rxBufferRead;
 405:Generated_Source\PSoC5/UART.c ****         locRxBufferWrite = UART_rxBufferWrite;
 406:Generated_Source\PSoC5/UART.c **** 
 407:Generated_Source\PSoC5/UART.c ****         if( (UART_rxBufferLoopDetect != 0u) || (locRxBufferRead != locRxBufferWrite) )
 408:Generated_Source\PSoC5/UART.c ****         {
 409:Generated_Source\PSoC5/UART.c ****             rxData = UART_rxBuffer[locRxBufferRead];
 410:Generated_Source\PSoC5/UART.c ****             locRxBufferRead++;
 411:Generated_Source\PSoC5/UART.c **** 
 412:Generated_Source\PSoC5/UART.c ****             if(locRxBufferRead >= UART_RX_BUFFER_SIZE)
 413:Generated_Source\PSoC5/UART.c ****             {
 414:Generated_Source\PSoC5/UART.c ****                 locRxBufferRead = 0u;
 415:Generated_Source\PSoC5/UART.c ****             }
 416:Generated_Source\PSoC5/UART.c ****             /* Update the real pointer */
ARM GAS  C:\Users\Hesham\AppData\Local\Temp\cc1wSMNs.s 			page 12


 417:Generated_Source\PSoC5/UART.c ****             UART_rxBufferRead = locRxBufferRead;
 418:Generated_Source\PSoC5/UART.c **** 
 419:Generated_Source\PSoC5/UART.c ****             if(UART_rxBufferLoopDetect != 0u)
 420:Generated_Source\PSoC5/UART.c ****             {
 421:Generated_Source\PSoC5/UART.c ****                 UART_rxBufferLoopDetect = 0u;
 422:Generated_Source\PSoC5/UART.c ****                 #if ((UART_RX_INTERRUPT_ENABLED) && (UART_FLOW_CONTROL != 0u))
 423:Generated_Source\PSoC5/UART.c ****                     /* When Hardware Flow Control selected - return RX mask */
 424:Generated_Source\PSoC5/UART.c ****                     #if( UART_HD_ENABLED )
 425:Generated_Source\PSoC5/UART.c ****                         if((UART_CONTROL_REG & UART_CTRL_HD_SEND) == 0u)
 426:Generated_Source\PSoC5/UART.c ****                         {   /* In Half duplex mode return RX mask only in RX
 427:Generated_Source\PSoC5/UART.c ****                             *  configuration set, otherwise
 428:Generated_Source\PSoC5/UART.c ****                             *  mask will be returned in LoadRxConfig() API.
 429:Generated_Source\PSoC5/UART.c ****                             */
 430:Generated_Source\PSoC5/UART.c ****                             UART_RXSTATUS_MASK_REG  |= UART_RX_STS_FIFO_NOTEMPTY;
 431:Generated_Source\PSoC5/UART.c ****                         }
 432:Generated_Source\PSoC5/UART.c ****                     #else
 433:Generated_Source\PSoC5/UART.c ****                         UART_RXSTATUS_MASK_REG  |= UART_RX_STS_FIFO_NOTEMPTY;
 434:Generated_Source\PSoC5/UART.c ****                     #endif /* end UART_HD_ENABLED */
 435:Generated_Source\PSoC5/UART.c ****                 #endif /* ((UART_RX_INTERRUPT_ENABLED) && (UART_FLOW_CONTROL != 0u)) */
 436:Generated_Source\PSoC5/UART.c ****             }
 437:Generated_Source\PSoC5/UART.c ****         }
 438:Generated_Source\PSoC5/UART.c ****         else
 439:Generated_Source\PSoC5/UART.c ****         {   /* Needs to check status for RX_STS_FIFO_NOTEMPTY bit */
 440:Generated_Source\PSoC5/UART.c ****             rxData = UART_RXDATA_REG;
 441:Generated_Source\PSoC5/UART.c ****         }
 442:Generated_Source\PSoC5/UART.c **** 
 443:Generated_Source\PSoC5/UART.c ****         UART_EnableRxInt();
 444:Generated_Source\PSoC5/UART.c **** 
 445:Generated_Source\PSoC5/UART.c ****     #else
 446:Generated_Source\PSoC5/UART.c **** 
 447:Generated_Source\PSoC5/UART.c ****         /* Needs to check status for RX_STS_FIFO_NOTEMPTY bit */
 448:Generated_Source\PSoC5/UART.c ****         rxData = UART_RXDATA_REG;
 212              		.loc 1 448 0
 213 0000 014B     		ldr	r3, .L19
 214 0002 1878     		ldrb	r0, [r3]	@ zero_extendqisi2
 215              	.LVL12:
 449:Generated_Source\PSoC5/UART.c **** 
 450:Generated_Source\PSoC5/UART.c ****     #endif /* (UART_RX_INTERRUPT_ENABLED) */
 451:Generated_Source\PSoC5/UART.c **** 
 452:Generated_Source\PSoC5/UART.c ****         return(rxData);
 453:Generated_Source\PSoC5/UART.c ****     }
 216              		.loc 1 453 0
 217 0004 7047     		bx	lr
 218              	.L20:
 219 0006 00BF     		.align	2
 220              	.L19:
 221 0008 4A640040 		.word	1073767498
 222              		.cfi_endproc
 223              	.LFE7:
 224              		.size	UART_ReadRxData, .-UART_ReadRxData
 225              		.section	.text.UART_ReadRxStatus,"ax",%progbits
 226              		.align	2
 227              		.global	UART_ReadRxStatus
 228              		.thumb
 229              		.thumb_func
 230              		.type	UART_ReadRxStatus, %function
 231              	UART_ReadRxStatus:
ARM GAS  C:\Users\Hesham\AppData\Local\Temp\cc1wSMNs.s 			page 13


 232              	.LFB8:
 454:Generated_Source\PSoC5/UART.c **** 
 455:Generated_Source\PSoC5/UART.c **** 
 456:Generated_Source\PSoC5/UART.c ****     /*******************************************************************************
 457:Generated_Source\PSoC5/UART.c ****     * Function Name: UART_ReadRxStatus
 458:Generated_Source\PSoC5/UART.c ****     ********************************************************************************
 459:Generated_Source\PSoC5/UART.c ****     *
 460:Generated_Source\PSoC5/UART.c ****     * Summary:
 461:Generated_Source\PSoC5/UART.c ****     *  Returns the current state of the receiver status register and the software
 462:Generated_Source\PSoC5/UART.c ****     *  buffer overflow status.
 463:Generated_Source\PSoC5/UART.c ****     *
 464:Generated_Source\PSoC5/UART.c ****     * Parameters:
 465:Generated_Source\PSoC5/UART.c ****     *  None.
 466:Generated_Source\PSoC5/UART.c ****     *
 467:Generated_Source\PSoC5/UART.c ****     * Return:
 468:Generated_Source\PSoC5/UART.c ****     *  Current state of the status register.
 469:Generated_Source\PSoC5/UART.c ****     *
 470:Generated_Source\PSoC5/UART.c ****     * Side Effect:
 471:Generated_Source\PSoC5/UART.c ****     *  All status register bits are clear-on-read except
 472:Generated_Source\PSoC5/UART.c ****     *  UART_RX_STS_FIFO_NOTEMPTY.
 473:Generated_Source\PSoC5/UART.c ****     *  UART_RX_STS_FIFO_NOTEMPTY clears immediately after RX data
 474:Generated_Source\PSoC5/UART.c ****     *  register read.
 475:Generated_Source\PSoC5/UART.c ****     *
 476:Generated_Source\PSoC5/UART.c ****     * Global Variables:
 477:Generated_Source\PSoC5/UART.c ****     *  UART_rxBufferOverflow - used to indicate overload condition.
 478:Generated_Source\PSoC5/UART.c ****     *   It set to one in RX interrupt when there isn't free space in
 479:Generated_Source\PSoC5/UART.c ****     *   UART_rxBufferRead to write new data. This condition returned
 480:Generated_Source\PSoC5/UART.c ****     *   and cleared to zero by this API as an
 481:Generated_Source\PSoC5/UART.c ****     *   UART_RX_STS_SOFT_BUFF_OVER bit along with RX Status register
 482:Generated_Source\PSoC5/UART.c ****     *   bits.
 483:Generated_Source\PSoC5/UART.c ****     *
 484:Generated_Source\PSoC5/UART.c ****     *******************************************************************************/
 485:Generated_Source\PSoC5/UART.c ****     uint8 UART_ReadRxStatus(void) 
 486:Generated_Source\PSoC5/UART.c ****     {
 233              		.loc 1 486 0
 234              		.cfi_startproc
 235              		@ args = 0, pretend = 0, frame = 0
 236              		@ frame_needed = 0, uses_anonymous_args = 0
 237              		@ link register save eliminated.
 487:Generated_Source\PSoC5/UART.c ****         uint8 status;
 488:Generated_Source\PSoC5/UART.c **** 
 489:Generated_Source\PSoC5/UART.c ****         status = UART_RXSTATUS_REG & UART_RX_HW_MASK;
 238              		.loc 1 489 0
 239 0000 024B     		ldr	r3, .L22
 240 0002 1878     		ldrb	r0, [r3]	@ zero_extendqisi2
 241              	.LVL13:
 490:Generated_Source\PSoC5/UART.c **** 
 491:Generated_Source\PSoC5/UART.c ****     #if (UART_RX_INTERRUPT_ENABLED)
 492:Generated_Source\PSoC5/UART.c ****         if(UART_rxBufferOverflow != 0u)
 493:Generated_Source\PSoC5/UART.c ****         {
 494:Generated_Source\PSoC5/UART.c ****             status |= UART_RX_STS_SOFT_BUFF_OVER;
 495:Generated_Source\PSoC5/UART.c ****             UART_rxBufferOverflow = 0u;
 496:Generated_Source\PSoC5/UART.c ****         }
 497:Generated_Source\PSoC5/UART.c ****     #endif /* (UART_RX_INTERRUPT_ENABLED) */
 498:Generated_Source\PSoC5/UART.c **** 
 499:Generated_Source\PSoC5/UART.c ****         return(status);
 500:Generated_Source\PSoC5/UART.c ****     }
ARM GAS  C:\Users\Hesham\AppData\Local\Temp\cc1wSMNs.s 			page 14


 242              		.loc 1 500 0
 243 0004 00F07F00 		and	r0, r0, #127
 244              	.LVL14:
 245 0008 7047     		bx	lr
 246              	.L23:
 247 000a 00BF     		.align	2
 248              	.L22:
 249 000c 68640040 		.word	1073767528
 250              		.cfi_endproc
 251              	.LFE8:
 252              		.size	UART_ReadRxStatus, .-UART_ReadRxStatus
 253              		.section	.text.UART_GetChar,"ax",%progbits
 254              		.align	2
 255              		.global	UART_GetChar
 256              		.thumb
 257              		.thumb_func
 258              		.type	UART_GetChar, %function
 259              	UART_GetChar:
 260              	.LFB9:
 501:Generated_Source\PSoC5/UART.c **** 
 502:Generated_Source\PSoC5/UART.c **** 
 503:Generated_Source\PSoC5/UART.c ****     /*******************************************************************************
 504:Generated_Source\PSoC5/UART.c ****     * Function Name: UART_GetChar
 505:Generated_Source\PSoC5/UART.c ****     ********************************************************************************
 506:Generated_Source\PSoC5/UART.c ****     *
 507:Generated_Source\PSoC5/UART.c ****     * Summary:
 508:Generated_Source\PSoC5/UART.c ****     *  Returns the last received byte of data. UART_GetChar() is
 509:Generated_Source\PSoC5/UART.c ****     *  designed for ASCII characters and returns a uint8 where 1 to 255 are values
 510:Generated_Source\PSoC5/UART.c ****     *  for valid characters and 0 indicates an error occurred or no data is present.
 511:Generated_Source\PSoC5/UART.c ****     *
 512:Generated_Source\PSoC5/UART.c ****     * Parameters:
 513:Generated_Source\PSoC5/UART.c ****     *  None.
 514:Generated_Source\PSoC5/UART.c ****     *
 515:Generated_Source\PSoC5/UART.c ****     * Return:
 516:Generated_Source\PSoC5/UART.c ****     *  Character read from UART RX buffer. ASCII characters from 1 to 255 are valid.
 517:Generated_Source\PSoC5/UART.c ****     *  A returned zero signifies an error condition or no data available.
 518:Generated_Source\PSoC5/UART.c ****     *
 519:Generated_Source\PSoC5/UART.c ****     * Global Variables:
 520:Generated_Source\PSoC5/UART.c ****     *  UART_rxBuffer - RAM buffer pointer for save received data.
 521:Generated_Source\PSoC5/UART.c ****     *  UART_rxBufferWrite - cyclic index for write to rxBuffer,
 522:Generated_Source\PSoC5/UART.c ****     *     checked to identify new data.
 523:Generated_Source\PSoC5/UART.c ****     *  UART_rxBufferRead - cyclic index for read from rxBuffer,
 524:Generated_Source\PSoC5/UART.c ****     *     incremented after each byte has been read from buffer.
 525:Generated_Source\PSoC5/UART.c ****     *  UART_rxBufferLoopDetect - cleared if loop condition was detected
 526:Generated_Source\PSoC5/UART.c ****     *     in RX ISR.
 527:Generated_Source\PSoC5/UART.c ****     *
 528:Generated_Source\PSoC5/UART.c ****     * Reentrant:
 529:Generated_Source\PSoC5/UART.c ****     *  No.
 530:Generated_Source\PSoC5/UART.c ****     *
 531:Generated_Source\PSoC5/UART.c ****     *******************************************************************************/
 532:Generated_Source\PSoC5/UART.c ****     uint8 UART_GetChar(void) 
 533:Generated_Source\PSoC5/UART.c ****     {
 261              		.loc 1 533 0
 262              		.cfi_startproc
 263              		@ args = 0, pretend = 0, frame = 0
 264              		@ frame_needed = 0, uses_anonymous_args = 0
 265              		@ link register save eliminated.
ARM GAS  C:\Users\Hesham\AppData\Local\Temp\cc1wSMNs.s 			page 15


 266              	.LVL15:
 534:Generated_Source\PSoC5/UART.c ****         uint8 rxData = 0u;
 535:Generated_Source\PSoC5/UART.c ****         uint8 rxStatus;
 536:Generated_Source\PSoC5/UART.c **** 
 537:Generated_Source\PSoC5/UART.c ****     #if (UART_RX_INTERRUPT_ENABLED)
 538:Generated_Source\PSoC5/UART.c ****         uint8 locRxBufferRead;
 539:Generated_Source\PSoC5/UART.c ****         uint8 locRxBufferWrite;
 540:Generated_Source\PSoC5/UART.c **** 
 541:Generated_Source\PSoC5/UART.c ****         /* Protect variables that could change on interrupt */
 542:Generated_Source\PSoC5/UART.c ****         UART_DisableRxInt();
 543:Generated_Source\PSoC5/UART.c **** 
 544:Generated_Source\PSoC5/UART.c ****         locRxBufferRead  = UART_rxBufferRead;
 545:Generated_Source\PSoC5/UART.c ****         locRxBufferWrite = UART_rxBufferWrite;
 546:Generated_Source\PSoC5/UART.c **** 
 547:Generated_Source\PSoC5/UART.c ****         if( (UART_rxBufferLoopDetect != 0u) || (locRxBufferRead != locRxBufferWrite) )
 548:Generated_Source\PSoC5/UART.c ****         {
 549:Generated_Source\PSoC5/UART.c ****             rxData = UART_rxBuffer[locRxBufferRead];
 550:Generated_Source\PSoC5/UART.c ****             locRxBufferRead++;
 551:Generated_Source\PSoC5/UART.c ****             if(locRxBufferRead >= UART_RX_BUFFER_SIZE)
 552:Generated_Source\PSoC5/UART.c ****             {
 553:Generated_Source\PSoC5/UART.c ****                 locRxBufferRead = 0u;
 554:Generated_Source\PSoC5/UART.c ****             }
 555:Generated_Source\PSoC5/UART.c ****             /* Update the real pointer */
 556:Generated_Source\PSoC5/UART.c ****             UART_rxBufferRead = locRxBufferRead;
 557:Generated_Source\PSoC5/UART.c **** 
 558:Generated_Source\PSoC5/UART.c ****             if(UART_rxBufferLoopDetect != 0u)
 559:Generated_Source\PSoC5/UART.c ****             {
 560:Generated_Source\PSoC5/UART.c ****                 UART_rxBufferLoopDetect = 0u;
 561:Generated_Source\PSoC5/UART.c ****                 #if( (UART_RX_INTERRUPT_ENABLED) && (UART_FLOW_CONTROL != 0u) )
 562:Generated_Source\PSoC5/UART.c ****                     /* When Hardware Flow Control selected - return RX mask */
 563:Generated_Source\PSoC5/UART.c ****                     #if( UART_HD_ENABLED )
 564:Generated_Source\PSoC5/UART.c ****                         if((UART_CONTROL_REG & UART_CTRL_HD_SEND) == 0u)
 565:Generated_Source\PSoC5/UART.c ****                         {   /* In Half duplex mode return RX mask only if
 566:Generated_Source\PSoC5/UART.c ****                             *  RX configuration set, otherwise
 567:Generated_Source\PSoC5/UART.c ****                             *  mask will be returned in LoadRxConfig() API.
 568:Generated_Source\PSoC5/UART.c ****                             */
 569:Generated_Source\PSoC5/UART.c ****                             UART_RXSTATUS_MASK_REG |= UART_RX_STS_FIFO_NOTEMPTY;
 570:Generated_Source\PSoC5/UART.c ****                         }
 571:Generated_Source\PSoC5/UART.c ****                     #else
 572:Generated_Source\PSoC5/UART.c ****                         UART_RXSTATUS_MASK_REG |= UART_RX_STS_FIFO_NOTEMPTY;
 573:Generated_Source\PSoC5/UART.c ****                     #endif /* end UART_HD_ENABLED */
 574:Generated_Source\PSoC5/UART.c ****                 #endif /* UART_RX_INTERRUPT_ENABLED and Hardware flow control*/
 575:Generated_Source\PSoC5/UART.c ****             }
 576:Generated_Source\PSoC5/UART.c **** 
 577:Generated_Source\PSoC5/UART.c ****         }
 578:Generated_Source\PSoC5/UART.c ****         else
 579:Generated_Source\PSoC5/UART.c ****         {   rxStatus = UART_RXSTATUS_REG;
 580:Generated_Source\PSoC5/UART.c ****             if((rxStatus & UART_RX_STS_FIFO_NOTEMPTY) != 0u)
 581:Generated_Source\PSoC5/UART.c ****             {   /* Read received data from FIFO */
 582:Generated_Source\PSoC5/UART.c ****                 rxData = UART_RXDATA_REG;
 583:Generated_Source\PSoC5/UART.c ****                 /*Check status on error*/
 584:Generated_Source\PSoC5/UART.c ****                 if((rxStatus & (UART_RX_STS_BREAK | UART_RX_STS_PAR_ERROR |
 585:Generated_Source\PSoC5/UART.c ****                                 UART_RX_STS_STOP_ERROR | UART_RX_STS_OVERRUN)) != 0u)
 586:Generated_Source\PSoC5/UART.c ****                 {
 587:Generated_Source\PSoC5/UART.c ****                     rxData = 0u;
 588:Generated_Source\PSoC5/UART.c ****                 }
 589:Generated_Source\PSoC5/UART.c ****             }
ARM GAS  C:\Users\Hesham\AppData\Local\Temp\cc1wSMNs.s 			page 16


 590:Generated_Source\PSoC5/UART.c ****         }
 591:Generated_Source\PSoC5/UART.c **** 
 592:Generated_Source\PSoC5/UART.c ****         UART_EnableRxInt();
 593:Generated_Source\PSoC5/UART.c **** 
 594:Generated_Source\PSoC5/UART.c ****     #else
 595:Generated_Source\PSoC5/UART.c **** 
 596:Generated_Source\PSoC5/UART.c ****         rxStatus =UART_RXSTATUS_REG;
 267              		.loc 1 596 0
 268 0000 084B     		ldr	r3, .L28
 269 0002 1B78     		ldrb	r3, [r3]	@ zero_extendqisi2
 270 0004 DBB2     		uxtb	r3, r3
 271              	.LVL16:
 597:Generated_Source\PSoC5/UART.c ****         if((rxStatus & UART_RX_STS_FIFO_NOTEMPTY) != 0u)
 272              		.loc 1 597 0
 273 0006 13F0200F 		tst	r3, #32
 274 000a 06D0     		beq	.L26
 598:Generated_Source\PSoC5/UART.c ****         {
 599:Generated_Source\PSoC5/UART.c ****             /* Read received data from FIFO */
 600:Generated_Source\PSoC5/UART.c ****             rxData = UART_RXDATA_REG;
 275              		.loc 1 600 0
 276 000c 064A     		ldr	r2, .L28+4
 277 000e 1078     		ldrb	r0, [r2]	@ zero_extendqisi2
 278 0010 C0B2     		uxtb	r0, r0
 279              	.LVL17:
 601:Generated_Source\PSoC5/UART.c **** 
 602:Generated_Source\PSoC5/UART.c ****             /*Check status on error*/
 603:Generated_Source\PSoC5/UART.c ****             if((rxStatus & (UART_RX_STS_BREAK | UART_RX_STS_PAR_ERROR |
 280              		.loc 1 603 0
 281 0012 13F01E0F 		tst	r3, #30
 282 0016 02D1     		bne	.L27
 283 0018 7047     		bx	lr
 284              	.LVL18:
 285              	.L26:
 534:Generated_Source\PSoC5/UART.c ****         uint8 rxStatus;
 286              		.loc 1 534 0
 287 001a 0020     		movs	r0, #0
 288 001c 7047     		bx	lr
 289              	.LVL19:
 290              	.L27:
 604:Generated_Source\PSoC5/UART.c ****                             UART_RX_STS_STOP_ERROR | UART_RX_STS_OVERRUN)) != 0u)
 605:Generated_Source\PSoC5/UART.c ****             {
 606:Generated_Source\PSoC5/UART.c ****                 rxData = 0u;
 291              		.loc 1 606 0
 292 001e 0020     		movs	r0, #0
 293              	.LVL20:
 607:Generated_Source\PSoC5/UART.c ****             }
 608:Generated_Source\PSoC5/UART.c ****         }
 609:Generated_Source\PSoC5/UART.c ****     #endif /* (UART_RX_INTERRUPT_ENABLED) */
 610:Generated_Source\PSoC5/UART.c **** 
 611:Generated_Source\PSoC5/UART.c ****         return(rxData);
 612:Generated_Source\PSoC5/UART.c ****     }
 294              		.loc 1 612 0
 295 0020 7047     		bx	lr
 296              	.L29:
 297 0022 00BF     		.align	2
 298              	.L28:
 299 0024 68640040 		.word	1073767528
ARM GAS  C:\Users\Hesham\AppData\Local\Temp\cc1wSMNs.s 			page 17


 300 0028 4A640040 		.word	1073767498
 301              		.cfi_endproc
 302              	.LFE9:
 303              		.size	UART_GetChar, .-UART_GetChar
 304              		.section	.text.UART_GetByte,"ax",%progbits
 305              		.align	2
 306              		.global	UART_GetByte
 307              		.thumb
 308              		.thumb_func
 309              		.type	UART_GetByte, %function
 310              	UART_GetByte:
 311              	.LFB10:
 613:Generated_Source\PSoC5/UART.c **** 
 614:Generated_Source\PSoC5/UART.c **** 
 615:Generated_Source\PSoC5/UART.c ****     /*******************************************************************************
 616:Generated_Source\PSoC5/UART.c ****     * Function Name: UART_GetByte
 617:Generated_Source\PSoC5/UART.c ****     ********************************************************************************
 618:Generated_Source\PSoC5/UART.c ****     *
 619:Generated_Source\PSoC5/UART.c ****     * Summary:
 620:Generated_Source\PSoC5/UART.c ****     *  Reads UART RX buffer immediately, returns received character and error
 621:Generated_Source\PSoC5/UART.c ****     *  condition.
 622:Generated_Source\PSoC5/UART.c ****     *
 623:Generated_Source\PSoC5/UART.c ****     * Parameters:
 624:Generated_Source\PSoC5/UART.c ****     *  None.
 625:Generated_Source\PSoC5/UART.c ****     *
 626:Generated_Source\PSoC5/UART.c ****     * Return:
 627:Generated_Source\PSoC5/UART.c ****     *  MSB contains status and LSB contains UART RX data. If the MSB is nonzero,
 628:Generated_Source\PSoC5/UART.c ****     *  an error has occurred.
 629:Generated_Source\PSoC5/UART.c ****     *
 630:Generated_Source\PSoC5/UART.c ****     * Reentrant:
 631:Generated_Source\PSoC5/UART.c ****     *  No.
 632:Generated_Source\PSoC5/UART.c ****     *
 633:Generated_Source\PSoC5/UART.c ****     *******************************************************************************/
 634:Generated_Source\PSoC5/UART.c ****     uint16 UART_GetByte(void) 
 635:Generated_Source\PSoC5/UART.c ****     {
 312              		.loc 1 635 0
 313              		.cfi_startproc
 314              		@ args = 0, pretend = 0, frame = 0
 315              		@ frame_needed = 0, uses_anonymous_args = 0
 316 0000 10B5     		push	{r4, lr}
 317              		.cfi_def_cfa_offset 8
 318              		.cfi_offset 4, -8
 319              		.cfi_offset 14, -4
 636:Generated_Source\PSoC5/UART.c ****         
 637:Generated_Source\PSoC5/UART.c ****     #if (UART_RX_INTERRUPT_ENABLED)
 638:Generated_Source\PSoC5/UART.c ****         uint16 locErrorStatus;
 639:Generated_Source\PSoC5/UART.c ****         /* Protect variables that could change on interrupt */
 640:Generated_Source\PSoC5/UART.c ****         UART_DisableRxInt();
 641:Generated_Source\PSoC5/UART.c ****         locErrorStatus = (uint16)UART_errorStatus;
 642:Generated_Source\PSoC5/UART.c ****         UART_errorStatus = 0u;
 643:Generated_Source\PSoC5/UART.c ****         UART_EnableRxInt();
 644:Generated_Source\PSoC5/UART.c ****         return ( (uint16)(locErrorStatus << 8u) | UART_ReadRxData() );
 645:Generated_Source\PSoC5/UART.c ****     #else
 646:Generated_Source\PSoC5/UART.c ****         return ( ((uint16)UART_ReadRxStatus() << 8u) | UART_ReadRxData() );
 320              		.loc 1 646 0
 321 0002 FFF7FEFF 		bl	UART_ReadRxStatus
 322              	.LVL21:
ARM GAS  C:\Users\Hesham\AppData\Local\Temp\cc1wSMNs.s 			page 18


 323 0006 0402     		lsls	r4, r0, #8
 324 0008 FFF7FEFF 		bl	UART_ReadRxData
 325              	.LVL22:
 326 000c 2043     		orrs	r0, r0, r4
 647:Generated_Source\PSoC5/UART.c ****     #endif /* UART_RX_INTERRUPT_ENABLED */
 648:Generated_Source\PSoC5/UART.c ****         
 649:Generated_Source\PSoC5/UART.c ****     }
 327              		.loc 1 649 0
 328 000e 80B2     		uxth	r0, r0
 329 0010 10BD     		pop	{r4, pc}
 330              		.cfi_endproc
 331              	.LFE10:
 332              		.size	UART_GetByte, .-UART_GetByte
 333 0012 00BF     		.section	.text.UART_GetRxBufferSize,"ax",%progbits
 334              		.align	2
 335              		.global	UART_GetRxBufferSize
 336              		.thumb
 337              		.thumb_func
 338              		.type	UART_GetRxBufferSize, %function
 339              	UART_GetRxBufferSize:
 340              	.LFB11:
 650:Generated_Source\PSoC5/UART.c **** 
 651:Generated_Source\PSoC5/UART.c **** 
 652:Generated_Source\PSoC5/UART.c ****     /*******************************************************************************
 653:Generated_Source\PSoC5/UART.c ****     * Function Name: UART_GetRxBufferSize
 654:Generated_Source\PSoC5/UART.c ****     ********************************************************************************
 655:Generated_Source\PSoC5/UART.c ****     *
 656:Generated_Source\PSoC5/UART.c ****     * Summary:
 657:Generated_Source\PSoC5/UART.c ****     *  Returns the number of received bytes available in the RX buffer.
 658:Generated_Source\PSoC5/UART.c ****     *  * RX software buffer is disabled (RX Buffer Size parameter is equal to 4): 
 659:Generated_Source\PSoC5/UART.c ****     *    returns 0 for empty RX FIFO or 1 for not empty RX FIFO.
 660:Generated_Source\PSoC5/UART.c ****     *  * RX software buffer is enabled: returns the number of bytes available in 
 661:Generated_Source\PSoC5/UART.c ****     *    the RX software buffer. Bytes available in the RX FIFO do not take to 
 662:Generated_Source\PSoC5/UART.c ****     *    account.
 663:Generated_Source\PSoC5/UART.c ****     *
 664:Generated_Source\PSoC5/UART.c ****     * Parameters:
 665:Generated_Source\PSoC5/UART.c ****     *  None.
 666:Generated_Source\PSoC5/UART.c ****     *
 667:Generated_Source\PSoC5/UART.c ****     * Return:
 668:Generated_Source\PSoC5/UART.c ****     *  uint8: Number of bytes in the RX buffer. 
 669:Generated_Source\PSoC5/UART.c ****     *    Return value type depends on RX Buffer Size parameter.
 670:Generated_Source\PSoC5/UART.c ****     *
 671:Generated_Source\PSoC5/UART.c ****     * Global Variables:
 672:Generated_Source\PSoC5/UART.c ****     *  UART_rxBufferWrite - used to calculate left bytes.
 673:Generated_Source\PSoC5/UART.c ****     *  UART_rxBufferRead - used to calculate left bytes.
 674:Generated_Source\PSoC5/UART.c ****     *  UART_rxBufferLoopDetect - checked to decide left bytes amount.
 675:Generated_Source\PSoC5/UART.c ****     *
 676:Generated_Source\PSoC5/UART.c ****     * Reentrant:
 677:Generated_Source\PSoC5/UART.c ****     *  No.
 678:Generated_Source\PSoC5/UART.c ****     *
 679:Generated_Source\PSoC5/UART.c ****     * Theory:
 680:Generated_Source\PSoC5/UART.c ****     *  Allows the user to find out how full the RX Buffer is.
 681:Generated_Source\PSoC5/UART.c ****     *
 682:Generated_Source\PSoC5/UART.c ****     *******************************************************************************/
 683:Generated_Source\PSoC5/UART.c ****     uint8 UART_GetRxBufferSize(void)
 684:Generated_Source\PSoC5/UART.c ****                                                             
 685:Generated_Source\PSoC5/UART.c ****     {
ARM GAS  C:\Users\Hesham\AppData\Local\Temp\cc1wSMNs.s 			page 19


 341              		.loc 1 685 0
 342              		.cfi_startproc
 343              		@ args = 0, pretend = 0, frame = 0
 344              		@ frame_needed = 0, uses_anonymous_args = 0
 345              		@ link register save eliminated.
 686:Generated_Source\PSoC5/UART.c ****         uint8 size;
 687:Generated_Source\PSoC5/UART.c **** 
 688:Generated_Source\PSoC5/UART.c ****     #if (UART_RX_INTERRUPT_ENABLED)
 689:Generated_Source\PSoC5/UART.c **** 
 690:Generated_Source\PSoC5/UART.c ****         /* Protect variables that could change on interrupt */
 691:Generated_Source\PSoC5/UART.c ****         UART_DisableRxInt();
 692:Generated_Source\PSoC5/UART.c **** 
 693:Generated_Source\PSoC5/UART.c ****         if(UART_rxBufferRead == UART_rxBufferWrite)
 694:Generated_Source\PSoC5/UART.c ****         {
 695:Generated_Source\PSoC5/UART.c ****             if(UART_rxBufferLoopDetect != 0u)
 696:Generated_Source\PSoC5/UART.c ****             {
 697:Generated_Source\PSoC5/UART.c ****                 size = UART_RX_BUFFER_SIZE;
 698:Generated_Source\PSoC5/UART.c ****             }
 699:Generated_Source\PSoC5/UART.c ****             else
 700:Generated_Source\PSoC5/UART.c ****             {
 701:Generated_Source\PSoC5/UART.c ****                 size = 0u;
 702:Generated_Source\PSoC5/UART.c ****             }
 703:Generated_Source\PSoC5/UART.c ****         }
 704:Generated_Source\PSoC5/UART.c ****         else if(UART_rxBufferRead < UART_rxBufferWrite)
 705:Generated_Source\PSoC5/UART.c ****         {
 706:Generated_Source\PSoC5/UART.c ****             size = (UART_rxBufferWrite - UART_rxBufferRead);
 707:Generated_Source\PSoC5/UART.c ****         }
 708:Generated_Source\PSoC5/UART.c ****         else
 709:Generated_Source\PSoC5/UART.c ****         {
 710:Generated_Source\PSoC5/UART.c ****             size = (UART_RX_BUFFER_SIZE - UART_rxBufferRead) + UART_rxBufferWrite;
 711:Generated_Source\PSoC5/UART.c ****         }
 712:Generated_Source\PSoC5/UART.c **** 
 713:Generated_Source\PSoC5/UART.c ****         UART_EnableRxInt();
 714:Generated_Source\PSoC5/UART.c **** 
 715:Generated_Source\PSoC5/UART.c ****     #else
 716:Generated_Source\PSoC5/UART.c **** 
 717:Generated_Source\PSoC5/UART.c ****         /* We can only know if there is data in the fifo. */
 718:Generated_Source\PSoC5/UART.c ****         size = ((UART_RXSTATUS_REG & UART_RX_STS_FIFO_NOTEMPTY) != 0u) ? 1u : 0u;
 346              		.loc 1 718 0
 347 0000 044B     		ldr	r3, .L35
 348 0002 1B78     		ldrb	r3, [r3]	@ zero_extendqisi2
 349 0004 13F0200F 		tst	r3, #32
 350 0008 01D0     		beq	.L34
 351 000a 0120     		movs	r0, #1
 352 000c 7047     		bx	lr
 353              	.L34:
 354 000e 0020     		movs	r0, #0
 355              	.LVL23:
 719:Generated_Source\PSoC5/UART.c **** 
 720:Generated_Source\PSoC5/UART.c ****     #endif /* (UART_RX_INTERRUPT_ENABLED) */
 721:Generated_Source\PSoC5/UART.c **** 
 722:Generated_Source\PSoC5/UART.c ****         return(size);
 723:Generated_Source\PSoC5/UART.c ****     }
 356              		.loc 1 723 0
 357 0010 7047     		bx	lr
 358              	.L36:
 359 0012 00BF     		.align	2
ARM GAS  C:\Users\Hesham\AppData\Local\Temp\cc1wSMNs.s 			page 20


 360              	.L35:
 361 0014 68640040 		.word	1073767528
 362              		.cfi_endproc
 363              	.LFE11:
 364              		.size	UART_GetRxBufferSize, .-UART_GetRxBufferSize
 365              		.section	.text.UART_ClearRxBuffer,"ax",%progbits
 366              		.align	2
 367              		.global	UART_ClearRxBuffer
 368              		.thumb
 369              		.thumb_func
 370              		.type	UART_ClearRxBuffer, %function
 371              	UART_ClearRxBuffer:
 372              	.LFB12:
 724:Generated_Source\PSoC5/UART.c **** 
 725:Generated_Source\PSoC5/UART.c **** 
 726:Generated_Source\PSoC5/UART.c ****     /*******************************************************************************
 727:Generated_Source\PSoC5/UART.c ****     * Function Name: UART_ClearRxBuffer
 728:Generated_Source\PSoC5/UART.c ****     ********************************************************************************
 729:Generated_Source\PSoC5/UART.c ****     *
 730:Generated_Source\PSoC5/UART.c ****     * Summary:
 731:Generated_Source\PSoC5/UART.c ****     *  Clears the receiver memory buffer and hardware RX FIFO of all received data.
 732:Generated_Source\PSoC5/UART.c ****     *
 733:Generated_Source\PSoC5/UART.c ****     * Parameters:
 734:Generated_Source\PSoC5/UART.c ****     *  None.
 735:Generated_Source\PSoC5/UART.c ****     *
 736:Generated_Source\PSoC5/UART.c ****     * Return:
 737:Generated_Source\PSoC5/UART.c ****     *  None.
 738:Generated_Source\PSoC5/UART.c ****     *
 739:Generated_Source\PSoC5/UART.c ****     * Global Variables:
 740:Generated_Source\PSoC5/UART.c ****     *  UART_rxBufferWrite - cleared to zero.
 741:Generated_Source\PSoC5/UART.c ****     *  UART_rxBufferRead - cleared to zero.
 742:Generated_Source\PSoC5/UART.c ****     *  UART_rxBufferLoopDetect - cleared to zero.
 743:Generated_Source\PSoC5/UART.c ****     *  UART_rxBufferOverflow - cleared to zero.
 744:Generated_Source\PSoC5/UART.c ****     *
 745:Generated_Source\PSoC5/UART.c ****     * Reentrant:
 746:Generated_Source\PSoC5/UART.c ****     *  No.
 747:Generated_Source\PSoC5/UART.c ****     *
 748:Generated_Source\PSoC5/UART.c ****     * Theory:
 749:Generated_Source\PSoC5/UART.c ****     *  Setting the pointers to zero makes the system believe there is no data to
 750:Generated_Source\PSoC5/UART.c ****     *  read and writing will resume at address 0 overwriting any data that may
 751:Generated_Source\PSoC5/UART.c ****     *  have remained in the RAM.
 752:Generated_Source\PSoC5/UART.c ****     *
 753:Generated_Source\PSoC5/UART.c ****     * Side Effects:
 754:Generated_Source\PSoC5/UART.c ****     *  Any received data not read from the RAM or FIFO buffer will be lost.
 755:Generated_Source\PSoC5/UART.c ****     *
 756:Generated_Source\PSoC5/UART.c ****     *******************************************************************************/
 757:Generated_Source\PSoC5/UART.c ****     void UART_ClearRxBuffer(void) 
 758:Generated_Source\PSoC5/UART.c ****     {
 373              		.loc 1 758 0
 374              		.cfi_startproc
 375              		@ args = 0, pretend = 0, frame = 0
 376              		@ frame_needed = 0, uses_anonymous_args = 0
 377 0000 08B5     		push	{r3, lr}
 378              		.cfi_def_cfa_offset 8
 379              		.cfi_offset 3, -8
 380              		.cfi_offset 14, -4
 759:Generated_Source\PSoC5/UART.c ****         uint8 enableInterrupts;
ARM GAS  C:\Users\Hesham\AppData\Local\Temp\cc1wSMNs.s 			page 21


 760:Generated_Source\PSoC5/UART.c **** 
 761:Generated_Source\PSoC5/UART.c ****         /* Clear the HW FIFO */
 762:Generated_Source\PSoC5/UART.c ****         enableInterrupts = CyEnterCriticalSection();
 381              		.loc 1 762 0
 382 0002 FFF7FEFF 		bl	CyEnterCriticalSection
 383              	.LVL24:
 763:Generated_Source\PSoC5/UART.c ****         UART_RXDATA_AUX_CTL_REG |= (uint8)  UART_RX_FIFO_CLR;
 384              		.loc 1 763 0
 385 0006 064B     		ldr	r3, .L39
 386 0008 1A78     		ldrb	r2, [r3]	@ zero_extendqisi2
 387 000a 42F00102 		orr	r2, r2, #1
 388 000e 1A70     		strb	r2, [r3]
 764:Generated_Source\PSoC5/UART.c ****         UART_RXDATA_AUX_CTL_REG &= (uint8) ~UART_RX_FIFO_CLR;
 389              		.loc 1 764 0
 390 0010 1A78     		ldrb	r2, [r3]	@ zero_extendqisi2
 391 0012 02F0FE02 		and	r2, r2, #254
 392 0016 1A70     		strb	r2, [r3]
 765:Generated_Source\PSoC5/UART.c ****         CyExitCriticalSection(enableInterrupts);
 393              		.loc 1 765 0
 394 0018 FFF7FEFF 		bl	CyExitCriticalSection
 395              	.LVL25:
 396 001c 08BD     		pop	{r3, pc}
 397              	.L40:
 398 001e 00BF     		.align	2
 399              	.L39:
 400 0020 9A640040 		.word	1073767578
 401              		.cfi_endproc
 402              	.LFE12:
 403              		.size	UART_ClearRxBuffer, .-UART_ClearRxBuffer
 404              		.section	.text.UART_SetRxAddressMode,"ax",%progbits
 405              		.align	2
 406              		.global	UART_SetRxAddressMode
 407              		.thumb
 408              		.thumb_func
 409              		.type	UART_SetRxAddressMode, %function
 410              	UART_SetRxAddressMode:
 411              	.LFB13:
 766:Generated_Source\PSoC5/UART.c **** 
 767:Generated_Source\PSoC5/UART.c ****     #if (UART_RX_INTERRUPT_ENABLED)
 768:Generated_Source\PSoC5/UART.c **** 
 769:Generated_Source\PSoC5/UART.c ****         /* Protect variables that could change on interrupt. */
 770:Generated_Source\PSoC5/UART.c ****         UART_DisableRxInt();
 771:Generated_Source\PSoC5/UART.c **** 
 772:Generated_Source\PSoC5/UART.c ****         UART_rxBufferRead = 0u;
 773:Generated_Source\PSoC5/UART.c ****         UART_rxBufferWrite = 0u;
 774:Generated_Source\PSoC5/UART.c ****         UART_rxBufferLoopDetect = 0u;
 775:Generated_Source\PSoC5/UART.c ****         UART_rxBufferOverflow = 0u;
 776:Generated_Source\PSoC5/UART.c **** 
 777:Generated_Source\PSoC5/UART.c ****         UART_EnableRxInt();
 778:Generated_Source\PSoC5/UART.c **** 
 779:Generated_Source\PSoC5/UART.c ****     #endif /* (UART_RX_INTERRUPT_ENABLED) */
 780:Generated_Source\PSoC5/UART.c **** 
 781:Generated_Source\PSoC5/UART.c ****     }
 782:Generated_Source\PSoC5/UART.c **** 
 783:Generated_Source\PSoC5/UART.c **** 
 784:Generated_Source\PSoC5/UART.c ****     /*******************************************************************************
 785:Generated_Source\PSoC5/UART.c ****     * Function Name: UART_SetRxAddressMode
ARM GAS  C:\Users\Hesham\AppData\Local\Temp\cc1wSMNs.s 			page 22


 786:Generated_Source\PSoC5/UART.c ****     ********************************************************************************
 787:Generated_Source\PSoC5/UART.c ****     *
 788:Generated_Source\PSoC5/UART.c ****     * Summary:
 789:Generated_Source\PSoC5/UART.c ****     *  Sets the software controlled Addressing mode used by the RX portion of the
 790:Generated_Source\PSoC5/UART.c ****     *  UART.
 791:Generated_Source\PSoC5/UART.c ****     *
 792:Generated_Source\PSoC5/UART.c ****     * Parameters:
 793:Generated_Source\PSoC5/UART.c ****     *  addressMode: Enumerated value indicating the mode of RX addressing
 794:Generated_Source\PSoC5/UART.c ****     *  UART__B_UART__AM_SW_BYTE_BYTE -  Software Byte-by-Byte address
 795:Generated_Source\PSoC5/UART.c ****     *                                               detection
 796:Generated_Source\PSoC5/UART.c ****     *  UART__B_UART__AM_SW_DETECT_TO_BUFFER - Software Detect to Buffer
 797:Generated_Source\PSoC5/UART.c ****     *                                               address detection
 798:Generated_Source\PSoC5/UART.c ****     *  UART__B_UART__AM_HW_BYTE_BY_BYTE - Hardware Byte-by-Byte address
 799:Generated_Source\PSoC5/UART.c ****     *                                               detection
 800:Generated_Source\PSoC5/UART.c ****     *  UART__B_UART__AM_HW_DETECT_TO_BUFFER - Hardware Detect to Buffer
 801:Generated_Source\PSoC5/UART.c ****     *                                               address detection
 802:Generated_Source\PSoC5/UART.c ****     *  UART__B_UART__AM_NONE - No address detection
 803:Generated_Source\PSoC5/UART.c ****     *
 804:Generated_Source\PSoC5/UART.c ****     * Return:
 805:Generated_Source\PSoC5/UART.c ****     *  None.
 806:Generated_Source\PSoC5/UART.c ****     *
 807:Generated_Source\PSoC5/UART.c ****     * Global Variables:
 808:Generated_Source\PSoC5/UART.c ****     *  UART_rxAddressMode - the parameter stored in this variable for
 809:Generated_Source\PSoC5/UART.c ****     *   the farther usage in RX ISR.
 810:Generated_Source\PSoC5/UART.c ****     *  UART_rxAddressDetected - set to initial state (0).
 811:Generated_Source\PSoC5/UART.c ****     *
 812:Generated_Source\PSoC5/UART.c ****     *******************************************************************************/
 813:Generated_Source\PSoC5/UART.c ****     void UART_SetRxAddressMode(uint8 addressMode)
 814:Generated_Source\PSoC5/UART.c ****                                                         
 815:Generated_Source\PSoC5/UART.c ****     {
 412              		.loc 1 815 0
 413              		.cfi_startproc
 414              		@ args = 0, pretend = 0, frame = 0
 415              		@ frame_needed = 0, uses_anonymous_args = 0
 416              		@ link register save eliminated.
 417              	.LVL26:
 816:Generated_Source\PSoC5/UART.c ****         #if(UART_RXHW_ADDRESS_ENABLED)
 817:Generated_Source\PSoC5/UART.c ****             #if(UART_CONTROL_REG_REMOVED)
 818:Generated_Source\PSoC5/UART.c ****                 if(0u != addressMode)
 819:Generated_Source\PSoC5/UART.c ****                 {
 820:Generated_Source\PSoC5/UART.c ****                     /* Suppress compiler warning */
 821:Generated_Source\PSoC5/UART.c ****                 }
 822:Generated_Source\PSoC5/UART.c ****             #else /* UART_CONTROL_REG_REMOVED */
 823:Generated_Source\PSoC5/UART.c ****                 uint8 tmpCtrl;
 824:Generated_Source\PSoC5/UART.c ****                 tmpCtrl = UART_CONTROL_REG & (uint8)~UART_CTRL_RXADDR_MODE_MASK;
 418              		.loc 1 824 0
 419 0000 044A     		ldr	r2, .L42
 420 0002 1378     		ldrb	r3, [r2]	@ zero_extendqisi2
 421 0004 03F01F03 		and	r3, r3, #31
 422              	.LVL27:
 825:Generated_Source\PSoC5/UART.c ****                 tmpCtrl |= (uint8)(addressMode << UART_CTRL_RXADDR_MODE0_SHIFT);
 423              		.loc 1 825 0
 424 0008 4001     		lsls	r0, r0, #5
 425              	.LVL28:
 426 000a C0B2     		uxtb	r0, r0
 427 000c 0343     		orrs	r3, r3, r0
 428              	.LVL29:
ARM GAS  C:\Users\Hesham\AppData\Local\Temp\cc1wSMNs.s 			page 23


 826:Generated_Source\PSoC5/UART.c ****                 UART_CONTROL_REG = tmpCtrl;
 429              		.loc 1 826 0
 430 000e 1370     		strb	r3, [r2]
 431 0010 7047     		bx	lr
 432              	.L43:
 433 0012 00BF     		.align	2
 434              	.L42:
 435 0014 7B640040 		.word	1073767547
 436              		.cfi_endproc
 437              	.LFE13:
 438              		.size	UART_SetRxAddressMode, .-UART_SetRxAddressMode
 439              		.section	.text.UART_SetRxAddress1,"ax",%progbits
 440              		.align	2
 441              		.global	UART_SetRxAddress1
 442              		.thumb
 443              		.thumb_func
 444              		.type	UART_SetRxAddress1, %function
 445              	UART_SetRxAddress1:
 446              	.LFB14:
 827:Generated_Source\PSoC5/UART.c **** 
 828:Generated_Source\PSoC5/UART.c ****                 #if(UART_RX_INTERRUPT_ENABLED && \
 829:Generated_Source\PSoC5/UART.c ****                    (UART_RXBUFFERSIZE > UART_FIFO_LENGTH) )
 830:Generated_Source\PSoC5/UART.c ****                     UART_rxAddressMode = addressMode;
 831:Generated_Source\PSoC5/UART.c ****                     UART_rxAddressDetected = 0u;
 832:Generated_Source\PSoC5/UART.c ****                 #endif /* End UART_RXBUFFERSIZE > UART_FIFO_LENGTH*/
 833:Generated_Source\PSoC5/UART.c ****             #endif /* End UART_CONTROL_REG_REMOVED */
 834:Generated_Source\PSoC5/UART.c ****         #else /* UART_RXHW_ADDRESS_ENABLED */
 835:Generated_Source\PSoC5/UART.c ****             if(0u != addressMode)
 836:Generated_Source\PSoC5/UART.c ****             {
 837:Generated_Source\PSoC5/UART.c ****                 /* Suppress compiler warning */
 838:Generated_Source\PSoC5/UART.c ****             }
 839:Generated_Source\PSoC5/UART.c ****         #endif /* End UART_RXHW_ADDRESS_ENABLED */
 840:Generated_Source\PSoC5/UART.c ****     }
 841:Generated_Source\PSoC5/UART.c **** 
 842:Generated_Source\PSoC5/UART.c **** 
 843:Generated_Source\PSoC5/UART.c ****     /*******************************************************************************
 844:Generated_Source\PSoC5/UART.c ****     * Function Name: UART_SetRxAddress1
 845:Generated_Source\PSoC5/UART.c ****     ********************************************************************************
 846:Generated_Source\PSoC5/UART.c ****     *
 847:Generated_Source\PSoC5/UART.c ****     * Summary:
 848:Generated_Source\PSoC5/UART.c ****     *  Sets the first of two hardware-detectable receiver addresses.
 849:Generated_Source\PSoC5/UART.c ****     *
 850:Generated_Source\PSoC5/UART.c ****     * Parameters:
 851:Generated_Source\PSoC5/UART.c ****     *  address: Address #1 for hardware address detection.
 852:Generated_Source\PSoC5/UART.c ****     *
 853:Generated_Source\PSoC5/UART.c ****     * Return:
 854:Generated_Source\PSoC5/UART.c ****     *  None.
 855:Generated_Source\PSoC5/UART.c ****     *
 856:Generated_Source\PSoC5/UART.c ****     *******************************************************************************/
 857:Generated_Source\PSoC5/UART.c ****     void UART_SetRxAddress1(uint8 address) 
 858:Generated_Source\PSoC5/UART.c ****     {
 447              		.loc 1 858 0
 448              		.cfi_startproc
 449              		@ args = 0, pretend = 0, frame = 0
 450              		@ frame_needed = 0, uses_anonymous_args = 0
 451              		@ link register save eliminated.
 452              	.LVL30:
ARM GAS  C:\Users\Hesham\AppData\Local\Temp\cc1wSMNs.s 			page 24


 859:Generated_Source\PSoC5/UART.c ****         UART_RXADDRESS1_REG = address;
 453              		.loc 1 859 0
 454 0000 014B     		ldr	r3, .L45
 455 0002 1870     		strb	r0, [r3]
 456 0004 7047     		bx	lr
 457              	.L46:
 458 0006 00BF     		.align	2
 459              	.L45:
 460 0008 2A640040 		.word	1073767466
 461              		.cfi_endproc
 462              	.LFE14:
 463              		.size	UART_SetRxAddress1, .-UART_SetRxAddress1
 464              		.section	.text.UART_SetRxAddress2,"ax",%progbits
 465              		.align	2
 466              		.global	UART_SetRxAddress2
 467              		.thumb
 468              		.thumb_func
 469              		.type	UART_SetRxAddress2, %function
 470              	UART_SetRxAddress2:
 471              	.LFB15:
 860:Generated_Source\PSoC5/UART.c ****     }
 861:Generated_Source\PSoC5/UART.c **** 
 862:Generated_Source\PSoC5/UART.c **** 
 863:Generated_Source\PSoC5/UART.c ****     /*******************************************************************************
 864:Generated_Source\PSoC5/UART.c ****     * Function Name: UART_SetRxAddress2
 865:Generated_Source\PSoC5/UART.c ****     ********************************************************************************
 866:Generated_Source\PSoC5/UART.c ****     *
 867:Generated_Source\PSoC5/UART.c ****     * Summary:
 868:Generated_Source\PSoC5/UART.c ****     *  Sets the second of two hardware-detectable receiver addresses.
 869:Generated_Source\PSoC5/UART.c ****     *
 870:Generated_Source\PSoC5/UART.c ****     * Parameters:
 871:Generated_Source\PSoC5/UART.c ****     *  address: Address #2 for hardware address detection.
 872:Generated_Source\PSoC5/UART.c ****     *
 873:Generated_Source\PSoC5/UART.c ****     * Return:
 874:Generated_Source\PSoC5/UART.c ****     *  None.
 875:Generated_Source\PSoC5/UART.c ****     *
 876:Generated_Source\PSoC5/UART.c ****     *******************************************************************************/
 877:Generated_Source\PSoC5/UART.c ****     void UART_SetRxAddress2(uint8 address) 
 878:Generated_Source\PSoC5/UART.c ****     {
 472              		.loc 1 878 0
 473              		.cfi_startproc
 474              		@ args = 0, pretend = 0, frame = 0
 475              		@ frame_needed = 0, uses_anonymous_args = 0
 476              		@ link register save eliminated.
 477              	.LVL31:
 879:Generated_Source\PSoC5/UART.c ****         UART_RXADDRESS2_REG = address;
 478              		.loc 1 879 0
 479 0000 014B     		ldr	r3, .L48
 480 0002 1870     		strb	r0, [r3]
 481 0004 7047     		bx	lr
 482              	.L49:
 483 0006 00BF     		.align	2
 484              	.L48:
 485 0008 3A640040 		.word	1073767482
 486              		.cfi_endproc
 487              	.LFE15:
 488              		.size	UART_SetRxAddress2, .-UART_SetRxAddress2
ARM GAS  C:\Users\Hesham\AppData\Local\Temp\cc1wSMNs.s 			page 25


 489              		.section	.text.UART_Init,"ax",%progbits
 490              		.align	2
 491              		.global	UART_Init
 492              		.thumb
 493              		.thumb_func
 494              		.type	UART_Init, %function
 495              	UART_Init:
 496              	.LFB1:
 107:Generated_Source\PSoC5/UART.c ****     #if(UART_RX_ENABLED || UART_HD_ENABLED)
 497              		.loc 1 107 0
 498              		.cfi_startproc
 499              		@ args = 0, pretend = 0, frame = 0
 500              		@ frame_needed = 0, uses_anonymous_args = 0
 501 0000 08B5     		push	{r3, lr}
 502              		.cfi_def_cfa_offset 8
 503              		.cfi_offset 3, -8
 504              		.cfi_offset 14, -4
 118:Generated_Source\PSoC5/UART.c ****             UART_SetRxAddress1(UART_RX_HW_ADDRESS1);
 505              		.loc 1 118 0
 506 0002 0420     		movs	r0, #4
 507 0004 FFF7FEFF 		bl	UART_SetRxAddressMode
 508              	.LVL32:
 119:Generated_Source\PSoC5/UART.c ****             UART_SetRxAddress2(UART_RX_HW_ADDRESS2);
 509              		.loc 1 119 0
 510 0008 0F20     		movs	r0, #15
 511 000a FFF7FEFF 		bl	UART_SetRxAddress1
 512              	.LVL33:
 120:Generated_Source\PSoC5/UART.c ****         #endif /* End UART_RXHW_ADDRESS_ENABLED */
 513              		.loc 1 120 0
 514 000e 0020     		movs	r0, #0
 515 0010 FFF7FEFF 		bl	UART_SetRxAddress2
 516              	.LVL34:
 124:Generated_Source\PSoC5/UART.c ****         /* Configure the Initial RX interrupt mask */
 517              		.loc 1 124 0
 518 0014 7222     		movs	r2, #114
 519 0016 084B     		ldr	r3, .L52
 520 0018 1A70     		strb	r2, [r3]
 126:Generated_Source\PSoC5/UART.c ****     #endif /* End UART_RX_ENABLED || UART_HD_ENABLED*/
 521              		.loc 1 126 0
 522 001a 2022     		movs	r2, #32
 523 001c A3F20113 		subw	r3, r3, #257
 524 0020 1A70     		strb	r2, [r3]
 138:Generated_Source\PSoC5/UART.c ****             UART_TXBITCLKTX_COMPLETE_REG = ((UART_NUMBER_OF_DATA_BITS +
 525              		.loc 1 138 0
 526 0022 0622     		movs	r2, #6
 527 0024 5F3B     		subs	r3, r3, #95
 528 0026 1A70     		strb	r2, [r3]
 139:Generated_Source\PSoC5/UART.c ****                         UART_NUMBER_OF_START_BIT) * UART_OVER_SAMPLE_COUNT) - 1u;
 529              		.loc 1 139 0
 530 0028 4722     		movs	r2, #71
 531 002a 1033     		adds	r3, r3, #16
 532 002c 1A70     		strb	r2, [r3]
 150:Generated_Source\PSoC5/UART.c ****         #endif /*End UART_TX_INTERRUPT_ENABLED*/
 533              		.loc 1 150 0
 534 002e 0022     		movs	r2, #0
 535 0030 03F5A973 		add	r3, r3, #338
 536 0034 1A70     		strb	r2, [r3]
ARM GAS  C:\Users\Hesham\AppData\Local\Temp\cc1wSMNs.s 			page 26


 537 0036 08BD     		pop	{r3, pc}
 538              	.L53:
 539              		.align	2
 540              	.L52:
 541 0038 89650040 		.word	1073767817
 542              		.cfi_endproc
 543              	.LFE1:
 544              		.size	UART_Init, .-UART_Init
 545              		.section	.text.UART_Start,"ax",%progbits
 546              		.align	2
 547              		.global	UART_Start
 548              		.thumb
 549              		.thumb_func
 550              		.type	UART_Start, %function
 551              	UART_Start:
 552              	.LFB0:
  77:Generated_Source\PSoC5/UART.c ****     /* If not initialized then initialize all required hardware and software */
 553              		.loc 1 77 0
 554              		.cfi_startproc
 555              		@ args = 0, pretend = 0, frame = 0
 556              		@ frame_needed = 0, uses_anonymous_args = 0
 557 0000 08B5     		push	{r3, lr}
 558              		.cfi_def_cfa_offset 8
 559              		.cfi_offset 3, -8
 560              		.cfi_offset 14, -4
  79:Generated_Source\PSoC5/UART.c ****     {
 561              		.loc 1 79 0
 562 0002 054B     		ldr	r3, .L57
 563 0004 1B78     		ldrb	r3, [r3]	@ zero_extendqisi2
 564 0006 23B9     		cbnz	r3, .L55
  81:Generated_Source\PSoC5/UART.c ****         UART_initVar = 1u;
 565              		.loc 1 81 0
 566 0008 FFF7FEFF 		bl	UART_Init
 567              	.LVL35:
  82:Generated_Source\PSoC5/UART.c ****     }
 568              		.loc 1 82 0
 569 000c 0122     		movs	r2, #1
 570 000e 024B     		ldr	r3, .L57
 571 0010 1A70     		strb	r2, [r3]
 572              	.L55:
  85:Generated_Source\PSoC5/UART.c **** }
 573              		.loc 1 85 0
 574 0012 FFF7FEFF 		bl	UART_Enable
 575              	.LVL36:
 576 0016 08BD     		pop	{r3, pc}
 577              	.L58:
 578              		.align	2
 579              	.L57:
 580 0018 00000000 		.word	.LANCHOR0
 581              		.cfi_endproc
 582              	.LFE0:
 583              		.size	UART_Start, .-UART_Start
 584              		.section	.text.UART_SetTxInterruptMode,"ax",%progbits
 585              		.align	2
 586              		.global	UART_SetTxInterruptMode
 587              		.thumb
 588              		.thumb_func
ARM GAS  C:\Users\Hesham\AppData\Local\Temp\cc1wSMNs.s 			page 27


 589              		.type	UART_SetTxInterruptMode, %function
 590              	UART_SetTxInterruptMode:
 591              	.LFB16:
 880:Generated_Source\PSoC5/UART.c ****     }
 881:Generated_Source\PSoC5/UART.c **** 
 882:Generated_Source\PSoC5/UART.c **** #endif  /* UART_RX_ENABLED || UART_HD_ENABLED*/
 883:Generated_Source\PSoC5/UART.c **** 
 884:Generated_Source\PSoC5/UART.c **** 
 885:Generated_Source\PSoC5/UART.c **** #if( (UART_TX_ENABLED) || (UART_HD_ENABLED) )
 886:Generated_Source\PSoC5/UART.c ****     /*******************************************************************************
 887:Generated_Source\PSoC5/UART.c ****     * Function Name: UART_SetTxInterruptMode
 888:Generated_Source\PSoC5/UART.c ****     ********************************************************************************
 889:Generated_Source\PSoC5/UART.c ****     *
 890:Generated_Source\PSoC5/UART.c ****     * Summary:
 891:Generated_Source\PSoC5/UART.c ****     *  Configures the TX interrupt sources to be enabled, but does not enable the
 892:Generated_Source\PSoC5/UART.c ****     *  interrupt.
 893:Generated_Source\PSoC5/UART.c ****     *
 894:Generated_Source\PSoC5/UART.c ****     * Parameters:
 895:Generated_Source\PSoC5/UART.c ****     *  intSrc: Bit field containing the TX interrupt sources to enable
 896:Generated_Source\PSoC5/UART.c ****     *   UART_TX_STS_COMPLETE        Interrupt on TX byte complete
 897:Generated_Source\PSoC5/UART.c ****     *   UART_TX_STS_FIFO_EMPTY      Interrupt when TX FIFO is empty
 898:Generated_Source\PSoC5/UART.c ****     *   UART_TX_STS_FIFO_FULL       Interrupt when TX FIFO is full
 899:Generated_Source\PSoC5/UART.c ****     *   UART_TX_STS_FIFO_NOT_FULL   Interrupt when TX FIFO is not full
 900:Generated_Source\PSoC5/UART.c ****     *
 901:Generated_Source\PSoC5/UART.c ****     * Return:
 902:Generated_Source\PSoC5/UART.c ****     *  None.
 903:Generated_Source\PSoC5/UART.c ****     *
 904:Generated_Source\PSoC5/UART.c ****     * Theory:
 905:Generated_Source\PSoC5/UART.c ****     *  Enables the output of specific status bits to the interrupt controller
 906:Generated_Source\PSoC5/UART.c ****     *
 907:Generated_Source\PSoC5/UART.c ****     *******************************************************************************/
 908:Generated_Source\PSoC5/UART.c ****     void UART_SetTxInterruptMode(uint8 intSrc) 
 909:Generated_Source\PSoC5/UART.c ****     {
 592              		.loc 1 909 0
 593              		.cfi_startproc
 594              		@ args = 0, pretend = 0, frame = 0
 595              		@ frame_needed = 0, uses_anonymous_args = 0
 596              		@ link register save eliminated.
 597              	.LVL37:
 910:Generated_Source\PSoC5/UART.c ****         UART_TXSTATUS_MASK_REG = intSrc;
 598              		.loc 1 910 0
 599 0000 014B     		ldr	r3, .L60
 600 0002 1870     		strb	r0, [r3]
 601 0004 7047     		bx	lr
 602              	.L61:
 603 0006 00BF     		.align	2
 604              	.L60:
 605 0008 8B650040 		.word	1073767819
 606              		.cfi_endproc
 607              	.LFE16:
 608              		.size	UART_SetTxInterruptMode, .-UART_SetTxInterruptMode
 609              		.section	.text.UART_WriteTxData,"ax",%progbits
 610              		.align	2
 611              		.global	UART_WriteTxData
 612              		.thumb
 613              		.thumb_func
 614              		.type	UART_WriteTxData, %function
ARM GAS  C:\Users\Hesham\AppData\Local\Temp\cc1wSMNs.s 			page 28


 615              	UART_WriteTxData:
 616              	.LFB17:
 911:Generated_Source\PSoC5/UART.c ****     }
 912:Generated_Source\PSoC5/UART.c **** 
 913:Generated_Source\PSoC5/UART.c **** 
 914:Generated_Source\PSoC5/UART.c ****     /*******************************************************************************
 915:Generated_Source\PSoC5/UART.c ****     * Function Name: UART_WriteTxData
 916:Generated_Source\PSoC5/UART.c ****     ********************************************************************************
 917:Generated_Source\PSoC5/UART.c ****     *
 918:Generated_Source\PSoC5/UART.c ****     * Summary:
 919:Generated_Source\PSoC5/UART.c ****     *  Places a byte of data into the transmit buffer to be sent when the bus is
 920:Generated_Source\PSoC5/UART.c ****     *  available without checking the TX status register. You must check status
 921:Generated_Source\PSoC5/UART.c ****     *  separately.
 922:Generated_Source\PSoC5/UART.c ****     *
 923:Generated_Source\PSoC5/UART.c ****     * Parameters:
 924:Generated_Source\PSoC5/UART.c ****     *  txDataByte: data byte
 925:Generated_Source\PSoC5/UART.c ****     *
 926:Generated_Source\PSoC5/UART.c ****     * Return:
 927:Generated_Source\PSoC5/UART.c ****     * None.
 928:Generated_Source\PSoC5/UART.c ****     *
 929:Generated_Source\PSoC5/UART.c ****     * Global Variables:
 930:Generated_Source\PSoC5/UART.c ****     *  UART_txBuffer - RAM buffer pointer for save data for transmission
 931:Generated_Source\PSoC5/UART.c ****     *  UART_txBufferWrite - cyclic index for write to txBuffer,
 932:Generated_Source\PSoC5/UART.c ****     *    incremented after each byte saved to buffer.
 933:Generated_Source\PSoC5/UART.c ****     *  UART_txBufferRead - cyclic index for read from txBuffer,
 934:Generated_Source\PSoC5/UART.c ****     *    checked to identify the condition to write to FIFO directly or to TX buffer
 935:Generated_Source\PSoC5/UART.c ****     *  UART_initVar - checked to identify that the component has been
 936:Generated_Source\PSoC5/UART.c ****     *    initialized.
 937:Generated_Source\PSoC5/UART.c ****     *
 938:Generated_Source\PSoC5/UART.c ****     * Reentrant:
 939:Generated_Source\PSoC5/UART.c ****     *  No.
 940:Generated_Source\PSoC5/UART.c ****     *
 941:Generated_Source\PSoC5/UART.c ****     *******************************************************************************/
 942:Generated_Source\PSoC5/UART.c ****     void UART_WriteTxData(uint8 txDataByte) 
 943:Generated_Source\PSoC5/UART.c ****     {
 617              		.loc 1 943 0
 618              		.cfi_startproc
 619              		@ args = 0, pretend = 0, frame = 0
 620              		@ frame_needed = 0, uses_anonymous_args = 0
 621              		@ link register save eliminated.
 622              	.LVL38:
 944:Generated_Source\PSoC5/UART.c ****         /* If not Initialized then skip this function*/
 945:Generated_Source\PSoC5/UART.c ****         if(UART_initVar != 0u)
 623              		.loc 1 945 0
 624 0000 024B     		ldr	r3, .L64
 625 0002 1B78     		ldrb	r3, [r3]	@ zero_extendqisi2
 626 0004 0BB1     		cbz	r3, .L62
 946:Generated_Source\PSoC5/UART.c ****         {
 947:Generated_Source\PSoC5/UART.c ****         #if (UART_TX_INTERRUPT_ENABLED)
 948:Generated_Source\PSoC5/UART.c **** 
 949:Generated_Source\PSoC5/UART.c ****             /* Protect variables that could change on interrupt. */
 950:Generated_Source\PSoC5/UART.c ****             UART_DisableTxInt();
 951:Generated_Source\PSoC5/UART.c **** 
 952:Generated_Source\PSoC5/UART.c ****             if( (UART_txBufferRead == UART_txBufferWrite) &&
 953:Generated_Source\PSoC5/UART.c ****                 ((UART_TXSTATUS_REG & UART_TX_STS_FIFO_FULL) == 0u) )
 954:Generated_Source\PSoC5/UART.c ****             {
 955:Generated_Source\PSoC5/UART.c ****                 /* Add directly to the FIFO. */
ARM GAS  C:\Users\Hesham\AppData\Local\Temp\cc1wSMNs.s 			page 29


 956:Generated_Source\PSoC5/UART.c ****                 UART_TXDATA_REG = txDataByte;
 957:Generated_Source\PSoC5/UART.c ****             }
 958:Generated_Source\PSoC5/UART.c ****             else
 959:Generated_Source\PSoC5/UART.c ****             {
 960:Generated_Source\PSoC5/UART.c ****                 if(UART_txBufferWrite >= UART_TX_BUFFER_SIZE)
 961:Generated_Source\PSoC5/UART.c ****                 {
 962:Generated_Source\PSoC5/UART.c ****                     UART_txBufferWrite = 0u;
 963:Generated_Source\PSoC5/UART.c ****                 }
 964:Generated_Source\PSoC5/UART.c **** 
 965:Generated_Source\PSoC5/UART.c ****                 UART_txBuffer[UART_txBufferWrite] = txDataByte;
 966:Generated_Source\PSoC5/UART.c **** 
 967:Generated_Source\PSoC5/UART.c ****                 /* Add to the software buffer. */
 968:Generated_Source\PSoC5/UART.c ****                 UART_txBufferWrite++;
 969:Generated_Source\PSoC5/UART.c ****             }
 970:Generated_Source\PSoC5/UART.c **** 
 971:Generated_Source\PSoC5/UART.c ****             UART_EnableTxInt();
 972:Generated_Source\PSoC5/UART.c **** 
 973:Generated_Source\PSoC5/UART.c ****         #else
 974:Generated_Source\PSoC5/UART.c **** 
 975:Generated_Source\PSoC5/UART.c ****             /* Add directly to the FIFO. */
 976:Generated_Source\PSoC5/UART.c ****             UART_TXDATA_REG = txDataByte;
 627              		.loc 1 976 0
 628 0006 024B     		ldr	r3, .L64+4
 629 0008 1870     		strb	r0, [r3]
 630              	.L62:
 631 000a 7047     		bx	lr
 632              	.L65:
 633              		.align	2
 634              	.L64:
 635 000c 00000000 		.word	.LANCHOR0
 636 0010 48650040 		.word	1073767752
 637              		.cfi_endproc
 638              	.LFE17:
 639              		.size	UART_WriteTxData, .-UART_WriteTxData
 640              		.section	.text.UART_ReadTxStatus,"ax",%progbits
 641              		.align	2
 642              		.global	UART_ReadTxStatus
 643              		.thumb
 644              		.thumb_func
 645              		.type	UART_ReadTxStatus, %function
 646              	UART_ReadTxStatus:
 647              	.LFB18:
 977:Generated_Source\PSoC5/UART.c **** 
 978:Generated_Source\PSoC5/UART.c ****         #endif /*(UART_TX_INTERRUPT_ENABLED) */
 979:Generated_Source\PSoC5/UART.c ****         }
 980:Generated_Source\PSoC5/UART.c ****     }
 981:Generated_Source\PSoC5/UART.c **** 
 982:Generated_Source\PSoC5/UART.c **** 
 983:Generated_Source\PSoC5/UART.c ****     /*******************************************************************************
 984:Generated_Source\PSoC5/UART.c ****     * Function Name: UART_ReadTxStatus
 985:Generated_Source\PSoC5/UART.c ****     ********************************************************************************
 986:Generated_Source\PSoC5/UART.c ****     *
 987:Generated_Source\PSoC5/UART.c ****     * Summary:
 988:Generated_Source\PSoC5/UART.c ****     *  Reads the status register for the TX portion of the UART.
 989:Generated_Source\PSoC5/UART.c ****     *
 990:Generated_Source\PSoC5/UART.c ****     * Parameters:
 991:Generated_Source\PSoC5/UART.c ****     *  None.
ARM GAS  C:\Users\Hesham\AppData\Local\Temp\cc1wSMNs.s 			page 30


 992:Generated_Source\PSoC5/UART.c ****     *
 993:Generated_Source\PSoC5/UART.c ****     * Return:
 994:Generated_Source\PSoC5/UART.c ****     *  Contents of the status register
 995:Generated_Source\PSoC5/UART.c ****     *
 996:Generated_Source\PSoC5/UART.c ****     * Theory:
 997:Generated_Source\PSoC5/UART.c ****     *  This function reads the TX status register, which is cleared on read.
 998:Generated_Source\PSoC5/UART.c ****     *  It is up to the user to handle all bits in this return value accordingly,
 999:Generated_Source\PSoC5/UART.c ****     *  even if the bit was not enabled as an interrupt source the event happened
1000:Generated_Source\PSoC5/UART.c ****     *  and must be handled accordingly.
1001:Generated_Source\PSoC5/UART.c ****     *
1002:Generated_Source\PSoC5/UART.c ****     *******************************************************************************/
1003:Generated_Source\PSoC5/UART.c ****     uint8 UART_ReadTxStatus(void) 
1004:Generated_Source\PSoC5/UART.c ****     {
 648              		.loc 1 1004 0
 649              		.cfi_startproc
 650              		@ args = 0, pretend = 0, frame = 0
 651              		@ frame_needed = 0, uses_anonymous_args = 0
 652              		@ link register save eliminated.
1005:Generated_Source\PSoC5/UART.c ****         return(UART_TXSTATUS_REG);
 653              		.loc 1 1005 0
 654 0000 014B     		ldr	r3, .L67
 655 0002 1878     		ldrb	r0, [r3]	@ zero_extendqisi2
1006:Generated_Source\PSoC5/UART.c ****     }
 656              		.loc 1 1006 0
 657 0004 7047     		bx	lr
 658              	.L68:
 659 0006 00BF     		.align	2
 660              	.L67:
 661 0008 6B650040 		.word	1073767787
 662              		.cfi_endproc
 663              	.LFE18:
 664              		.size	UART_ReadTxStatus, .-UART_ReadTxStatus
 665              		.section	.text.UART_PutChar,"ax",%progbits
 666              		.align	2
 667              		.global	UART_PutChar
 668              		.thumb
 669              		.thumb_func
 670              		.type	UART_PutChar, %function
 671              	UART_PutChar:
 672              	.LFB19:
1007:Generated_Source\PSoC5/UART.c **** 
1008:Generated_Source\PSoC5/UART.c **** 
1009:Generated_Source\PSoC5/UART.c ****     /*******************************************************************************
1010:Generated_Source\PSoC5/UART.c ****     * Function Name: UART_PutChar
1011:Generated_Source\PSoC5/UART.c ****     ********************************************************************************
1012:Generated_Source\PSoC5/UART.c ****     *
1013:Generated_Source\PSoC5/UART.c ****     * Summary:
1014:Generated_Source\PSoC5/UART.c ****     *  Puts a byte of data into the transmit buffer to be sent when the bus is
1015:Generated_Source\PSoC5/UART.c ****     *  available. This is a blocking API that waits until the TX buffer has room to
1016:Generated_Source\PSoC5/UART.c ****     *  hold the data.
1017:Generated_Source\PSoC5/UART.c ****     *
1018:Generated_Source\PSoC5/UART.c ****     * Parameters:
1019:Generated_Source\PSoC5/UART.c ****     *  txDataByte: Byte containing the data to transmit
1020:Generated_Source\PSoC5/UART.c ****     *
1021:Generated_Source\PSoC5/UART.c ****     * Return:
1022:Generated_Source\PSoC5/UART.c ****     *  None.
1023:Generated_Source\PSoC5/UART.c ****     *
ARM GAS  C:\Users\Hesham\AppData\Local\Temp\cc1wSMNs.s 			page 31


1024:Generated_Source\PSoC5/UART.c ****     * Global Variables:
1025:Generated_Source\PSoC5/UART.c ****     *  UART_txBuffer - RAM buffer pointer for save data for transmission
1026:Generated_Source\PSoC5/UART.c ****     *  UART_txBufferWrite - cyclic index for write to txBuffer,
1027:Generated_Source\PSoC5/UART.c ****     *     checked to identify free space in txBuffer and incremented after each byte
1028:Generated_Source\PSoC5/UART.c ****     *     saved to buffer.
1029:Generated_Source\PSoC5/UART.c ****     *  UART_txBufferRead - cyclic index for read from txBuffer,
1030:Generated_Source\PSoC5/UART.c ****     *     checked to identify free space in txBuffer.
1031:Generated_Source\PSoC5/UART.c ****     *  UART_initVar - checked to identify that the component has been
1032:Generated_Source\PSoC5/UART.c ****     *     initialized.
1033:Generated_Source\PSoC5/UART.c ****     *
1034:Generated_Source\PSoC5/UART.c ****     * Reentrant:
1035:Generated_Source\PSoC5/UART.c ****     *  No.
1036:Generated_Source\PSoC5/UART.c ****     *
1037:Generated_Source\PSoC5/UART.c ****     * Theory:
1038:Generated_Source\PSoC5/UART.c ****     *  Allows the user to transmit any byte of data in a single transfer
1039:Generated_Source\PSoC5/UART.c ****     *
1040:Generated_Source\PSoC5/UART.c ****     *******************************************************************************/
1041:Generated_Source\PSoC5/UART.c ****     void UART_PutChar(uint8 txDataByte) 
1042:Generated_Source\PSoC5/UART.c ****     {
 673              		.loc 1 1042 0
 674              		.cfi_startproc
 675              		@ args = 0, pretend = 0, frame = 0
 676              		@ frame_needed = 0, uses_anonymous_args = 0
 677              		@ link register save eliminated.
 678              	.LVL39:
 679              	.L70:
1043:Generated_Source\PSoC5/UART.c ****     #if (UART_TX_INTERRUPT_ENABLED)
1044:Generated_Source\PSoC5/UART.c ****         /* The temporary output pointer is used since it takes two instructions
1045:Generated_Source\PSoC5/UART.c ****         *  to increment with a wrap, and we can't risk doing that with the real
1046:Generated_Source\PSoC5/UART.c ****         *  pointer and getting an interrupt in between instructions.
1047:Generated_Source\PSoC5/UART.c ****         */
1048:Generated_Source\PSoC5/UART.c ****         uint8 locTxBufferWrite;
1049:Generated_Source\PSoC5/UART.c ****         uint8 locTxBufferRead;
1050:Generated_Source\PSoC5/UART.c **** 
1051:Generated_Source\PSoC5/UART.c ****         do
1052:Generated_Source\PSoC5/UART.c ****         { /* Block if software buffer is full, so we don't overwrite. */
1053:Generated_Source\PSoC5/UART.c **** 
1054:Generated_Source\PSoC5/UART.c ****         #if ((UART_TX_BUFFER_SIZE > UART_MAX_BYTE_VALUE) && (CY_PSOC3))
1055:Generated_Source\PSoC5/UART.c ****             /* Disable TX interrupt to protect variables from modification */
1056:Generated_Source\PSoC5/UART.c ****             UART_DisableTxInt();
1057:Generated_Source\PSoC5/UART.c ****         #endif /* (UART_TX_BUFFER_SIZE > UART_MAX_BYTE_VALUE) && (CY_PSOC3) */
1058:Generated_Source\PSoC5/UART.c **** 
1059:Generated_Source\PSoC5/UART.c ****             locTxBufferWrite = UART_txBufferWrite;
1060:Generated_Source\PSoC5/UART.c ****             locTxBufferRead  = UART_txBufferRead;
1061:Generated_Source\PSoC5/UART.c **** 
1062:Generated_Source\PSoC5/UART.c ****         #if ((UART_TX_BUFFER_SIZE > UART_MAX_BYTE_VALUE) && (CY_PSOC3))
1063:Generated_Source\PSoC5/UART.c ****             /* Enable interrupt to continue transmission */
1064:Generated_Source\PSoC5/UART.c ****             UART_EnableTxInt();
1065:Generated_Source\PSoC5/UART.c ****         #endif /* (UART_TX_BUFFER_SIZE > UART_MAX_BYTE_VALUE) && (CY_PSOC3) */
1066:Generated_Source\PSoC5/UART.c ****         }
1067:Generated_Source\PSoC5/UART.c ****         while( (locTxBufferWrite < locTxBufferRead) ? (locTxBufferWrite == (locTxBufferRead - 1u)) 
1068:Generated_Source\PSoC5/UART.c ****                                 ((locTxBufferWrite - locTxBufferRead) ==
1069:Generated_Source\PSoC5/UART.c ****                                 (uint8)(UART_TX_BUFFER_SIZE - 1u)) );
1070:Generated_Source\PSoC5/UART.c **** 
1071:Generated_Source\PSoC5/UART.c ****         if( (locTxBufferRead == locTxBufferWrite) &&
1072:Generated_Source\PSoC5/UART.c ****             ((UART_TXSTATUS_REG & UART_TX_STS_FIFO_FULL) == 0u) )
1073:Generated_Source\PSoC5/UART.c ****         {
ARM GAS  C:\Users\Hesham\AppData\Local\Temp\cc1wSMNs.s 			page 32


1074:Generated_Source\PSoC5/UART.c ****             /* Add directly to the FIFO */
1075:Generated_Source\PSoC5/UART.c ****             UART_TXDATA_REG = txDataByte;
1076:Generated_Source\PSoC5/UART.c ****         }
1077:Generated_Source\PSoC5/UART.c ****         else
1078:Generated_Source\PSoC5/UART.c ****         {
1079:Generated_Source\PSoC5/UART.c ****             if(locTxBufferWrite >= UART_TX_BUFFER_SIZE)
1080:Generated_Source\PSoC5/UART.c ****             {
1081:Generated_Source\PSoC5/UART.c ****                 locTxBufferWrite = 0u;
1082:Generated_Source\PSoC5/UART.c ****             }
1083:Generated_Source\PSoC5/UART.c ****             /* Add to the software buffer. */
1084:Generated_Source\PSoC5/UART.c ****             UART_txBuffer[locTxBufferWrite] = txDataByte;
1085:Generated_Source\PSoC5/UART.c ****             locTxBufferWrite++;
1086:Generated_Source\PSoC5/UART.c **** 
1087:Generated_Source\PSoC5/UART.c ****             /* Finally, update the real output pointer */
1088:Generated_Source\PSoC5/UART.c ****         #if ((UART_TX_BUFFER_SIZE > UART_MAX_BYTE_VALUE) && (CY_PSOC3))
1089:Generated_Source\PSoC5/UART.c ****             UART_DisableTxInt();
1090:Generated_Source\PSoC5/UART.c ****         #endif /* (UART_TX_BUFFER_SIZE > UART_MAX_BYTE_VALUE) && (CY_PSOC3) */
1091:Generated_Source\PSoC5/UART.c **** 
1092:Generated_Source\PSoC5/UART.c ****             UART_txBufferWrite = locTxBufferWrite;
1093:Generated_Source\PSoC5/UART.c **** 
1094:Generated_Source\PSoC5/UART.c ****         #if ((UART_TX_BUFFER_SIZE > UART_MAX_BYTE_VALUE) && (CY_PSOC3))
1095:Generated_Source\PSoC5/UART.c ****             UART_EnableTxInt();
1096:Generated_Source\PSoC5/UART.c ****         #endif /* (UART_TX_BUFFER_SIZE > UART_MAX_BYTE_VALUE) && (CY_PSOC3) */
1097:Generated_Source\PSoC5/UART.c **** 
1098:Generated_Source\PSoC5/UART.c ****             if(0u != (UART_TXSTATUS_REG & UART_TX_STS_FIFO_EMPTY))
1099:Generated_Source\PSoC5/UART.c ****             {
1100:Generated_Source\PSoC5/UART.c ****                 /* Trigger TX interrupt to send software buffer */
1101:Generated_Source\PSoC5/UART.c ****                 UART_SetPendingTxInt();
1102:Generated_Source\PSoC5/UART.c ****             }
1103:Generated_Source\PSoC5/UART.c ****         }
1104:Generated_Source\PSoC5/UART.c **** 
1105:Generated_Source\PSoC5/UART.c ****     #else
1106:Generated_Source\PSoC5/UART.c **** 
1107:Generated_Source\PSoC5/UART.c ****         while((UART_TXSTATUS_REG & UART_TX_STS_FIFO_FULL) != 0u)
 680              		.loc 1 1107 0 discriminator 1
 681 0000 034B     		ldr	r3, .L71
 682 0002 1B78     		ldrb	r3, [r3]	@ zero_extendqisi2
 683 0004 13F0040F 		tst	r3, #4
 684 0008 FAD1     		bne	.L70
1108:Generated_Source\PSoC5/UART.c ****         {
1109:Generated_Source\PSoC5/UART.c ****             /* Wait for room in the FIFO */
1110:Generated_Source\PSoC5/UART.c ****         }
1111:Generated_Source\PSoC5/UART.c **** 
1112:Generated_Source\PSoC5/UART.c ****         /* Add directly to the FIFO */
1113:Generated_Source\PSoC5/UART.c ****         UART_TXDATA_REG = txDataByte;
 685              		.loc 1 1113 0
 686 000a 024B     		ldr	r3, .L71+4
 687 000c 1870     		strb	r0, [r3]
 688 000e 7047     		bx	lr
 689              	.L72:
 690              		.align	2
 691              	.L71:
 692 0010 6B650040 		.word	1073767787
 693 0014 48650040 		.word	1073767752
 694              		.cfi_endproc
 695              	.LFE19:
 696              		.size	UART_PutChar, .-UART_PutChar
ARM GAS  C:\Users\Hesham\AppData\Local\Temp\cc1wSMNs.s 			page 33


 697              		.section	.text.UART_PutString,"ax",%progbits
 698              		.align	2
 699              		.global	UART_PutString
 700              		.thumb
 701              		.thumb_func
 702              		.type	UART_PutString, %function
 703              	UART_PutString:
 704              	.LFB20:
1114:Generated_Source\PSoC5/UART.c **** 
1115:Generated_Source\PSoC5/UART.c ****     #endif /* UART_TX_INTERRUPT_ENABLED */
1116:Generated_Source\PSoC5/UART.c ****     }
1117:Generated_Source\PSoC5/UART.c **** 
1118:Generated_Source\PSoC5/UART.c **** 
1119:Generated_Source\PSoC5/UART.c ****     /*******************************************************************************
1120:Generated_Source\PSoC5/UART.c ****     * Function Name: UART_PutString
1121:Generated_Source\PSoC5/UART.c ****     ********************************************************************************
1122:Generated_Source\PSoC5/UART.c ****     *
1123:Generated_Source\PSoC5/UART.c ****     * Summary:
1124:Generated_Source\PSoC5/UART.c ****     *  Sends a NULL terminated string to the TX buffer for transmission.
1125:Generated_Source\PSoC5/UART.c ****     *
1126:Generated_Source\PSoC5/UART.c ****     * Parameters:
1127:Generated_Source\PSoC5/UART.c ****     *  string[]: Pointer to the null terminated string array residing in RAM or ROM
1128:Generated_Source\PSoC5/UART.c ****     *
1129:Generated_Source\PSoC5/UART.c ****     * Return:
1130:Generated_Source\PSoC5/UART.c ****     *  None.
1131:Generated_Source\PSoC5/UART.c ****     *
1132:Generated_Source\PSoC5/UART.c ****     * Global Variables:
1133:Generated_Source\PSoC5/UART.c ****     *  UART_initVar - checked to identify that the component has been
1134:Generated_Source\PSoC5/UART.c ****     *     initialized.
1135:Generated_Source\PSoC5/UART.c ****     *
1136:Generated_Source\PSoC5/UART.c ****     * Reentrant:
1137:Generated_Source\PSoC5/UART.c ****     *  No.
1138:Generated_Source\PSoC5/UART.c ****     *
1139:Generated_Source\PSoC5/UART.c ****     * Theory:
1140:Generated_Source\PSoC5/UART.c ****     *  If there is not enough memory in the TX buffer for the entire string, this
1141:Generated_Source\PSoC5/UART.c ****     *  function blocks until the last character of the string is loaded into the
1142:Generated_Source\PSoC5/UART.c ****     *  TX buffer.
1143:Generated_Source\PSoC5/UART.c ****     *
1144:Generated_Source\PSoC5/UART.c ****     *******************************************************************************/
1145:Generated_Source\PSoC5/UART.c ****     void UART_PutString(const char8 string[]) 
1146:Generated_Source\PSoC5/UART.c ****     {
 705              		.loc 1 1146 0
 706              		.cfi_startproc
 707              		@ args = 0, pretend = 0, frame = 0
 708              		@ frame_needed = 0, uses_anonymous_args = 0
 709              	.LVL40:
 710 0000 38B5     		push	{r3, r4, r5, lr}
 711              		.cfi_def_cfa_offset 16
 712              		.cfi_offset 3, -16
 713              		.cfi_offset 4, -12
 714              		.cfi_offset 5, -8
 715              		.cfi_offset 14, -4
 716              	.LVL41:
1147:Generated_Source\PSoC5/UART.c ****         uint16 bufIndex = 0u;
1148:Generated_Source\PSoC5/UART.c **** 
1149:Generated_Source\PSoC5/UART.c ****         /* If not Initialized then skip this function */
1150:Generated_Source\PSoC5/UART.c ****         if(UART_initVar != 0u)
ARM GAS  C:\Users\Hesham\AppData\Local\Temp\cc1wSMNs.s 			page 34


 717              		.loc 1 1150 0
 718 0002 074B     		ldr	r3, .L79
 719 0004 1B78     		ldrb	r3, [r3]	@ zero_extendqisi2
 720 0006 2BB9     		cbnz	r3, .L77
 721 0008 38BD     		pop	{r3, r4, r5, pc}
 722              	.LVL42:
 723              	.L76:
1151:Generated_Source\PSoC5/UART.c ****         {
1152:Generated_Source\PSoC5/UART.c ****             /* This is a blocking function, it will not exit until all data is sent */
1153:Generated_Source\PSoC5/UART.c ****             while(string[bufIndex] != (char8) 0)
1154:Generated_Source\PSoC5/UART.c ****             {
1155:Generated_Source\PSoC5/UART.c ****                 UART_PutChar((uint8)string[bufIndex]);
 724              		.loc 1 1155 0
 725 000a FFF7FEFF 		bl	UART_PutChar
 726              	.LVL43:
1156:Generated_Source\PSoC5/UART.c ****                 bufIndex++;
 727              		.loc 1 1156 0
 728 000e 0134     		adds	r4, r4, #1
 729              	.LVL44:
 730 0010 A4B2     		uxth	r4, r4
 731              	.LVL45:
 732 0012 01E0     		b	.L74
 733              	.LVL46:
 734              	.L77:
 735 0014 0546     		mov	r5, r0
 736 0016 0024     		movs	r4, #0
 737              	.LVL47:
 738              	.L74:
1153:Generated_Source\PSoC5/UART.c ****             {
 739              		.loc 1 1153 0
 740 0018 285D     		ldrb	r0, [r5, r4]	@ zero_extendqisi2
 741 001a 0028     		cmp	r0, #0
 742 001c F5D1     		bne	.L76
 743 001e 38BD     		pop	{r3, r4, r5, pc}
 744              	.LVL48:
 745              	.L80:
 746              		.align	2
 747              	.L79:
 748 0020 00000000 		.word	.LANCHOR0
 749              		.cfi_endproc
 750              	.LFE20:
 751              		.size	UART_PutString, .-UART_PutString
 752              		.section	.text.UART_PutArray,"ax",%progbits
 753              		.align	2
 754              		.global	UART_PutArray
 755              		.thumb
 756              		.thumb_func
 757              		.type	UART_PutArray, %function
 758              	UART_PutArray:
 759              	.LFB21:
1157:Generated_Source\PSoC5/UART.c ****             }
1158:Generated_Source\PSoC5/UART.c ****         }
1159:Generated_Source\PSoC5/UART.c ****     }
1160:Generated_Source\PSoC5/UART.c **** 
1161:Generated_Source\PSoC5/UART.c **** 
1162:Generated_Source\PSoC5/UART.c ****     /*******************************************************************************
1163:Generated_Source\PSoC5/UART.c ****     * Function Name: UART_PutArray
ARM GAS  C:\Users\Hesham\AppData\Local\Temp\cc1wSMNs.s 			page 35


1164:Generated_Source\PSoC5/UART.c ****     ********************************************************************************
1165:Generated_Source\PSoC5/UART.c ****     *
1166:Generated_Source\PSoC5/UART.c ****     * Summary:
1167:Generated_Source\PSoC5/UART.c ****     *  Places N bytes of data from a memory array into the TX buffer for
1168:Generated_Source\PSoC5/UART.c ****     *  transmission.
1169:Generated_Source\PSoC5/UART.c ****     *
1170:Generated_Source\PSoC5/UART.c ****     * Parameters:
1171:Generated_Source\PSoC5/UART.c ****     *  string[]: Address of the memory array residing in RAM or ROM.
1172:Generated_Source\PSoC5/UART.c ****     *  byteCount: Number of bytes to be transmitted. The type depends on TX Buffer
1173:Generated_Source\PSoC5/UART.c ****     *             Size parameter.
1174:Generated_Source\PSoC5/UART.c ****     *
1175:Generated_Source\PSoC5/UART.c ****     * Return:
1176:Generated_Source\PSoC5/UART.c ****     *  None.
1177:Generated_Source\PSoC5/UART.c ****     *
1178:Generated_Source\PSoC5/UART.c ****     * Global Variables:
1179:Generated_Source\PSoC5/UART.c ****     *  UART_initVar - checked to identify that the component has been
1180:Generated_Source\PSoC5/UART.c ****     *     initialized.
1181:Generated_Source\PSoC5/UART.c ****     *
1182:Generated_Source\PSoC5/UART.c ****     * Reentrant:
1183:Generated_Source\PSoC5/UART.c ****     *  No.
1184:Generated_Source\PSoC5/UART.c ****     *
1185:Generated_Source\PSoC5/UART.c ****     * Theory:
1186:Generated_Source\PSoC5/UART.c ****     *  If there is not enough memory in the TX buffer for the entire string, this
1187:Generated_Source\PSoC5/UART.c ****     *  function blocks until the last character of the string is loaded into the
1188:Generated_Source\PSoC5/UART.c ****     *  TX buffer.
1189:Generated_Source\PSoC5/UART.c ****     *
1190:Generated_Source\PSoC5/UART.c ****     *******************************************************************************/
1191:Generated_Source\PSoC5/UART.c ****     void UART_PutArray(const uint8 string[], uint8 byteCount)
1192:Generated_Source\PSoC5/UART.c ****                                                                     
1193:Generated_Source\PSoC5/UART.c ****     {
 760              		.loc 1 1193 0
 761              		.cfi_startproc
 762              		@ args = 0, pretend = 0, frame = 0
 763              		@ frame_needed = 0, uses_anonymous_args = 0
 764              	.LVL49:
1194:Generated_Source\PSoC5/UART.c ****         uint8 bufIndex = 0u;
1195:Generated_Source\PSoC5/UART.c **** 
1196:Generated_Source\PSoC5/UART.c ****         /* If not Initialized then skip this function */
1197:Generated_Source\PSoC5/UART.c ****         if(UART_initVar != 0u)
 765              		.loc 1 1197 0
 766 0000 084B     		ldr	r3, .L87
 767 0002 1B78     		ldrb	r3, [r3]	@ zero_extendqisi2
 768 0004 33B9     		cbnz	r3, .L85
 769 0006 7047     		bx	lr
 770              	.LVL50:
 771              	.L84:
 772              		.cfi_def_cfa_offset 16
 773              		.cfi_offset 4, -16
 774              		.cfi_offset 5, -12
 775              		.cfi_offset 6, -8
 776              		.cfi_offset 14, -4
1198:Generated_Source\PSoC5/UART.c ****         {
1199:Generated_Source\PSoC5/UART.c ****             while(bufIndex < byteCount)
1200:Generated_Source\PSoC5/UART.c ****             {
1201:Generated_Source\PSoC5/UART.c ****                 UART_PutChar(string[bufIndex]);
 777              		.loc 1 1201 0
 778 0008 305D     		ldrb	r0, [r6, r4]	@ zero_extendqisi2
ARM GAS  C:\Users\Hesham\AppData\Local\Temp\cc1wSMNs.s 			page 36


 779 000a FFF7FEFF 		bl	UART_PutChar
 780              	.LVL51:
1202:Generated_Source\PSoC5/UART.c ****                 bufIndex++;
 781              		.loc 1 1202 0
 782 000e 0134     		adds	r4, r4, #1
 783              	.LVL52:
 784 0010 E4B2     		uxtb	r4, r4
 785              	.LVL53:
 786 0012 03E0     		b	.L82
 787              	.LVL54:
 788              	.L85:
 789              		.cfi_def_cfa_offset 0
 790              		.cfi_restore 4
 791              		.cfi_restore 5
 792              		.cfi_restore 6
 793              		.cfi_restore 14
1193:Generated_Source\PSoC5/UART.c ****         uint8 bufIndex = 0u;
 794              		.loc 1 1193 0
 795 0014 70B5     		push	{r4, r5, r6, lr}
 796              		.cfi_def_cfa_offset 16
 797              		.cfi_offset 4, -16
 798              		.cfi_offset 5, -12
 799              		.cfi_offset 6, -8
 800              		.cfi_offset 14, -4
 801 0016 0D46     		mov	r5, r1
 802 0018 0646     		mov	r6, r0
 803 001a 0024     		movs	r4, #0
 804              	.LVL55:
 805              	.L82:
1199:Generated_Source\PSoC5/UART.c ****             {
 806              		.loc 1 1199 0
 807 001c AC42     		cmp	r4, r5
 808 001e F3D3     		bcc	.L84
 809 0020 70BD     		pop	{r4, r5, r6, pc}
 810              	.LVL56:
 811              	.L88:
 812 0022 00BF     		.align	2
 813              	.L87:
 814 0024 00000000 		.word	.LANCHOR0
 815              		.cfi_endproc
 816              	.LFE21:
 817              		.size	UART_PutArray, .-UART_PutArray
 818              		.section	.text.UART_PutCRLF,"ax",%progbits
 819              		.align	2
 820              		.global	UART_PutCRLF
 821              		.thumb
 822              		.thumb_func
 823              		.type	UART_PutCRLF, %function
 824              	UART_PutCRLF:
 825              	.LFB22:
1203:Generated_Source\PSoC5/UART.c ****             }
1204:Generated_Source\PSoC5/UART.c ****         }
1205:Generated_Source\PSoC5/UART.c ****     }
1206:Generated_Source\PSoC5/UART.c **** 
1207:Generated_Source\PSoC5/UART.c **** 
1208:Generated_Source\PSoC5/UART.c ****     /*******************************************************************************
1209:Generated_Source\PSoC5/UART.c ****     * Function Name: UART_PutCRLF
ARM GAS  C:\Users\Hesham\AppData\Local\Temp\cc1wSMNs.s 			page 37


1210:Generated_Source\PSoC5/UART.c ****     ********************************************************************************
1211:Generated_Source\PSoC5/UART.c ****     *
1212:Generated_Source\PSoC5/UART.c ****     * Summary:
1213:Generated_Source\PSoC5/UART.c ****     *  Writes a byte of data followed by a carriage return (0x0D) and line feed
1214:Generated_Source\PSoC5/UART.c ****     *  (0x0A) to the transmit buffer.
1215:Generated_Source\PSoC5/UART.c ****     *
1216:Generated_Source\PSoC5/UART.c ****     * Parameters:
1217:Generated_Source\PSoC5/UART.c ****     *  txDataByte: Data byte to transmit before the carriage return and line feed.
1218:Generated_Source\PSoC5/UART.c ****     *
1219:Generated_Source\PSoC5/UART.c ****     * Return:
1220:Generated_Source\PSoC5/UART.c ****     *  None.
1221:Generated_Source\PSoC5/UART.c ****     *
1222:Generated_Source\PSoC5/UART.c ****     * Global Variables:
1223:Generated_Source\PSoC5/UART.c ****     *  UART_initVar - checked to identify that the component has been
1224:Generated_Source\PSoC5/UART.c ****     *     initialized.
1225:Generated_Source\PSoC5/UART.c ****     *
1226:Generated_Source\PSoC5/UART.c ****     * Reentrant:
1227:Generated_Source\PSoC5/UART.c ****     *  No.
1228:Generated_Source\PSoC5/UART.c ****     *
1229:Generated_Source\PSoC5/UART.c ****     *******************************************************************************/
1230:Generated_Source\PSoC5/UART.c ****     void UART_PutCRLF(uint8 txDataByte) 
1231:Generated_Source\PSoC5/UART.c ****     {
 826              		.loc 1 1231 0
 827              		.cfi_startproc
 828              		@ args = 0, pretend = 0, frame = 0
 829              		@ frame_needed = 0, uses_anonymous_args = 0
 830              	.LVL57:
 831 0000 08B5     		push	{r3, lr}
 832              		.cfi_def_cfa_offset 8
 833              		.cfi_offset 3, -8
 834              		.cfi_offset 14, -4
1232:Generated_Source\PSoC5/UART.c ****         /* If not Initialized then skip this function */
1233:Generated_Source\PSoC5/UART.c ****         if(UART_initVar != 0u)
 835              		.loc 1 1233 0
 836 0002 064B     		ldr	r3, .L92
 837 0004 1B78     		ldrb	r3, [r3]	@ zero_extendqisi2
 838 0006 3BB1     		cbz	r3, .L89
1234:Generated_Source\PSoC5/UART.c ****         {
1235:Generated_Source\PSoC5/UART.c ****             UART_PutChar(txDataByte);
 839              		.loc 1 1235 0
 840 0008 FFF7FEFF 		bl	UART_PutChar
 841              	.LVL58:
1236:Generated_Source\PSoC5/UART.c ****             UART_PutChar(0x0Du);
 842              		.loc 1 1236 0
 843 000c 0D20     		movs	r0, #13
 844 000e FFF7FEFF 		bl	UART_PutChar
 845              	.LVL59:
1237:Generated_Source\PSoC5/UART.c ****             UART_PutChar(0x0Au);
 846              		.loc 1 1237 0
 847 0012 0A20     		movs	r0, #10
 848 0014 FFF7FEFF 		bl	UART_PutChar
 849              	.LVL60:
 850              	.L89:
 851 0018 08BD     		pop	{r3, pc}
 852              	.L93:
 853 001a 00BF     		.align	2
 854              	.L92:
ARM GAS  C:\Users\Hesham\AppData\Local\Temp\cc1wSMNs.s 			page 38


 855 001c 00000000 		.word	.LANCHOR0
 856              		.cfi_endproc
 857              	.LFE22:
 858              		.size	UART_PutCRLF, .-UART_PutCRLF
 859              		.section	.text.UART_GetTxBufferSize,"ax",%progbits
 860              		.align	2
 861              		.global	UART_GetTxBufferSize
 862              		.thumb
 863              		.thumb_func
 864              		.type	UART_GetTxBufferSize, %function
 865              	UART_GetTxBufferSize:
 866              	.LFB23:
1238:Generated_Source\PSoC5/UART.c ****         }
1239:Generated_Source\PSoC5/UART.c ****     }
1240:Generated_Source\PSoC5/UART.c **** 
1241:Generated_Source\PSoC5/UART.c **** 
1242:Generated_Source\PSoC5/UART.c ****     /*******************************************************************************
1243:Generated_Source\PSoC5/UART.c ****     * Function Name: UART_GetTxBufferSize
1244:Generated_Source\PSoC5/UART.c ****     ********************************************************************************
1245:Generated_Source\PSoC5/UART.c ****     *
1246:Generated_Source\PSoC5/UART.c ****     * Summary:
1247:Generated_Source\PSoC5/UART.c ****     *  Returns the number of bytes in the TX buffer which are waiting to be 
1248:Generated_Source\PSoC5/UART.c ****     *  transmitted.
1249:Generated_Source\PSoC5/UART.c ****     *  * TX software buffer is disabled (TX Buffer Size parameter is equal to 4): 
1250:Generated_Source\PSoC5/UART.c ****     *    returns 0 for empty TX FIFO, 1 for not full TX FIFO or 4 for full TX FIFO.
1251:Generated_Source\PSoC5/UART.c ****     *  * TX software buffer is enabled: returns the number of bytes in the TX 
1252:Generated_Source\PSoC5/UART.c ****     *    software buffer which are waiting to be transmitted. Bytes available in the
1253:Generated_Source\PSoC5/UART.c ****     *    TX FIFO do not count.
1254:Generated_Source\PSoC5/UART.c ****     *
1255:Generated_Source\PSoC5/UART.c ****     * Parameters:
1256:Generated_Source\PSoC5/UART.c ****     *  None.
1257:Generated_Source\PSoC5/UART.c ****     *
1258:Generated_Source\PSoC5/UART.c ****     * Return:
1259:Generated_Source\PSoC5/UART.c ****     *  Number of bytes used in the TX buffer. Return value type depends on the TX 
1260:Generated_Source\PSoC5/UART.c ****     *  Buffer Size parameter.
1261:Generated_Source\PSoC5/UART.c ****     *
1262:Generated_Source\PSoC5/UART.c ****     * Global Variables:
1263:Generated_Source\PSoC5/UART.c ****     *  UART_txBufferWrite - used to calculate left space.
1264:Generated_Source\PSoC5/UART.c ****     *  UART_txBufferRead - used to calculate left space.
1265:Generated_Source\PSoC5/UART.c ****     *
1266:Generated_Source\PSoC5/UART.c ****     * Reentrant:
1267:Generated_Source\PSoC5/UART.c ****     *  No.
1268:Generated_Source\PSoC5/UART.c ****     *
1269:Generated_Source\PSoC5/UART.c ****     * Theory:
1270:Generated_Source\PSoC5/UART.c ****     *  Allows the user to find out how full the TX Buffer is.
1271:Generated_Source\PSoC5/UART.c ****     *
1272:Generated_Source\PSoC5/UART.c ****     *******************************************************************************/
1273:Generated_Source\PSoC5/UART.c ****     uint8 UART_GetTxBufferSize(void)
1274:Generated_Source\PSoC5/UART.c ****                                                             
1275:Generated_Source\PSoC5/UART.c ****     {
 867              		.loc 1 1275 0
 868              		.cfi_startproc
 869              		@ args = 0, pretend = 0, frame = 0
 870              		@ frame_needed = 0, uses_anonymous_args = 0
 871              		@ link register save eliminated.
1276:Generated_Source\PSoC5/UART.c ****         uint8 size;
1277:Generated_Source\PSoC5/UART.c **** 
ARM GAS  C:\Users\Hesham\AppData\Local\Temp\cc1wSMNs.s 			page 39


1278:Generated_Source\PSoC5/UART.c ****     #if (UART_TX_INTERRUPT_ENABLED)
1279:Generated_Source\PSoC5/UART.c **** 
1280:Generated_Source\PSoC5/UART.c ****         /* Protect variables that could change on interrupt. */
1281:Generated_Source\PSoC5/UART.c ****         UART_DisableTxInt();
1282:Generated_Source\PSoC5/UART.c **** 
1283:Generated_Source\PSoC5/UART.c ****         if(UART_txBufferRead == UART_txBufferWrite)
1284:Generated_Source\PSoC5/UART.c ****         {
1285:Generated_Source\PSoC5/UART.c ****             size = 0u;
1286:Generated_Source\PSoC5/UART.c ****         }
1287:Generated_Source\PSoC5/UART.c ****         else if(UART_txBufferRead < UART_txBufferWrite)
1288:Generated_Source\PSoC5/UART.c ****         {
1289:Generated_Source\PSoC5/UART.c ****             size = (UART_txBufferWrite - UART_txBufferRead);
1290:Generated_Source\PSoC5/UART.c ****         }
1291:Generated_Source\PSoC5/UART.c ****         else
1292:Generated_Source\PSoC5/UART.c ****         {
1293:Generated_Source\PSoC5/UART.c ****             size = (UART_TX_BUFFER_SIZE - UART_txBufferRead) +
1294:Generated_Source\PSoC5/UART.c ****                     UART_txBufferWrite;
1295:Generated_Source\PSoC5/UART.c ****         }
1296:Generated_Source\PSoC5/UART.c **** 
1297:Generated_Source\PSoC5/UART.c ****         UART_EnableTxInt();
1298:Generated_Source\PSoC5/UART.c **** 
1299:Generated_Source\PSoC5/UART.c ****     #else
1300:Generated_Source\PSoC5/UART.c **** 
1301:Generated_Source\PSoC5/UART.c ****         size = UART_TXSTATUS_REG;
 872              		.loc 1 1301 0
 873 0000 074B     		ldr	r3, .L98
 874 0002 1B78     		ldrb	r3, [r3]	@ zero_extendqisi2
 875 0004 DBB2     		uxtb	r3, r3
 876              	.LVL61:
1302:Generated_Source\PSoC5/UART.c **** 
1303:Generated_Source\PSoC5/UART.c ****         /* Is the fifo is full. */
1304:Generated_Source\PSoC5/UART.c ****         if((size & UART_TX_STS_FIFO_FULL) != 0u)
 877              		.loc 1 1304 0
 878 0006 13F0040F 		tst	r3, #4
 879 000a 04D1     		bne	.L96
1305:Generated_Source\PSoC5/UART.c ****         {
1306:Generated_Source\PSoC5/UART.c ****             size = UART_FIFO_LENGTH;
1307:Generated_Source\PSoC5/UART.c ****         }
1308:Generated_Source\PSoC5/UART.c ****         else if((size & UART_TX_STS_FIFO_EMPTY) != 0u)
 880              		.loc 1 1308 0
 881 000c 13F0020F 		tst	r3, #2
 882 0010 03D0     		beq	.L97
1309:Generated_Source\PSoC5/UART.c ****         {
1310:Generated_Source\PSoC5/UART.c ****             size = 0u;
 883              		.loc 1 1310 0
 884 0012 0020     		movs	r0, #0
 885 0014 7047     		bx	lr
 886              	.L96:
1306:Generated_Source\PSoC5/UART.c ****         }
 887              		.loc 1 1306 0
 888 0016 0420     		movs	r0, #4
 889 0018 7047     		bx	lr
 890              	.L97:
1311:Generated_Source\PSoC5/UART.c ****         }
1312:Generated_Source\PSoC5/UART.c ****         else
1313:Generated_Source\PSoC5/UART.c ****         {
1314:Generated_Source\PSoC5/UART.c ****             /* We only know there is data in the fifo. */
ARM GAS  C:\Users\Hesham\AppData\Local\Temp\cc1wSMNs.s 			page 40


1315:Generated_Source\PSoC5/UART.c ****             size = 1u;
 891              		.loc 1 1315 0
 892 001a 0120     		movs	r0, #1
 893              	.LVL62:
1316:Generated_Source\PSoC5/UART.c ****         }
1317:Generated_Source\PSoC5/UART.c **** 
1318:Generated_Source\PSoC5/UART.c ****     #endif /* (UART_TX_INTERRUPT_ENABLED) */
1319:Generated_Source\PSoC5/UART.c **** 
1320:Generated_Source\PSoC5/UART.c ****     return(size);
1321:Generated_Source\PSoC5/UART.c ****     }
 894              		.loc 1 1321 0
 895 001c 7047     		bx	lr
 896              	.L99:
 897 001e 00BF     		.align	2
 898              	.L98:
 899 0020 6B650040 		.word	1073767787
 900              		.cfi_endproc
 901              	.LFE23:
 902              		.size	UART_GetTxBufferSize, .-UART_GetTxBufferSize
 903              		.section	.text.UART_ClearTxBuffer,"ax",%progbits
 904              		.align	2
 905              		.global	UART_ClearTxBuffer
 906              		.thumb
 907              		.thumb_func
 908              		.type	UART_ClearTxBuffer, %function
 909              	UART_ClearTxBuffer:
 910              	.LFB24:
1322:Generated_Source\PSoC5/UART.c **** 
1323:Generated_Source\PSoC5/UART.c **** 
1324:Generated_Source\PSoC5/UART.c ****     /*******************************************************************************
1325:Generated_Source\PSoC5/UART.c ****     * Function Name: UART_ClearTxBuffer
1326:Generated_Source\PSoC5/UART.c ****     ********************************************************************************
1327:Generated_Source\PSoC5/UART.c ****     *
1328:Generated_Source\PSoC5/UART.c ****     * Summary:
1329:Generated_Source\PSoC5/UART.c ****     *  Clears all data from the TX buffer and hardware TX FIFO.
1330:Generated_Source\PSoC5/UART.c ****     *
1331:Generated_Source\PSoC5/UART.c ****     * Parameters:
1332:Generated_Source\PSoC5/UART.c ****     *  None.
1333:Generated_Source\PSoC5/UART.c ****     *
1334:Generated_Source\PSoC5/UART.c ****     * Return:
1335:Generated_Source\PSoC5/UART.c ****     *  None.
1336:Generated_Source\PSoC5/UART.c ****     *
1337:Generated_Source\PSoC5/UART.c ****     * Global Variables:
1338:Generated_Source\PSoC5/UART.c ****     *  UART_txBufferWrite - cleared to zero.
1339:Generated_Source\PSoC5/UART.c ****     *  UART_txBufferRead - cleared to zero.
1340:Generated_Source\PSoC5/UART.c ****     *
1341:Generated_Source\PSoC5/UART.c ****     * Reentrant:
1342:Generated_Source\PSoC5/UART.c ****     *  No.
1343:Generated_Source\PSoC5/UART.c ****     *
1344:Generated_Source\PSoC5/UART.c ****     * Theory:
1345:Generated_Source\PSoC5/UART.c ****     *  Setting the pointers to zero makes the system believe there is no data to
1346:Generated_Source\PSoC5/UART.c ****     *  read and writing will resume at address 0 overwriting any data that may have
1347:Generated_Source\PSoC5/UART.c ****     *  remained in the RAM.
1348:Generated_Source\PSoC5/UART.c ****     *
1349:Generated_Source\PSoC5/UART.c ****     * Side Effects:
1350:Generated_Source\PSoC5/UART.c ****     *  Data waiting in the transmit buffer is not sent; a byte that is currently
1351:Generated_Source\PSoC5/UART.c ****     *  transmitting finishes transmitting.
ARM GAS  C:\Users\Hesham\AppData\Local\Temp\cc1wSMNs.s 			page 41


1352:Generated_Source\PSoC5/UART.c ****     *
1353:Generated_Source\PSoC5/UART.c ****     *******************************************************************************/
1354:Generated_Source\PSoC5/UART.c ****     void UART_ClearTxBuffer(void) 
1355:Generated_Source\PSoC5/UART.c ****     {
 911              		.loc 1 1355 0
 912              		.cfi_startproc
 913              		@ args = 0, pretend = 0, frame = 0
 914              		@ frame_needed = 0, uses_anonymous_args = 0
 915 0000 08B5     		push	{r3, lr}
 916              		.cfi_def_cfa_offset 8
 917              		.cfi_offset 3, -8
 918              		.cfi_offset 14, -4
1356:Generated_Source\PSoC5/UART.c ****         uint8 enableInterrupts;
1357:Generated_Source\PSoC5/UART.c **** 
1358:Generated_Source\PSoC5/UART.c ****         enableInterrupts = CyEnterCriticalSection();
 919              		.loc 1 1358 0
 920 0002 FFF7FEFF 		bl	CyEnterCriticalSection
 921              	.LVL63:
1359:Generated_Source\PSoC5/UART.c ****         /* Clear the HW FIFO */
1360:Generated_Source\PSoC5/UART.c ****         UART_TXDATA_AUX_CTL_REG |= (uint8)  UART_TX_FIFO_CLR;
 922              		.loc 1 1360 0
 923 0006 064B     		ldr	r3, .L102
 924 0008 1A78     		ldrb	r2, [r3]	@ zero_extendqisi2
 925 000a 42F00102 		orr	r2, r2, #1
 926 000e 1A70     		strb	r2, [r3]
1361:Generated_Source\PSoC5/UART.c ****         UART_TXDATA_AUX_CTL_REG &= (uint8) ~UART_TX_FIFO_CLR;
 927              		.loc 1 1361 0
 928 0010 1A78     		ldrb	r2, [r3]	@ zero_extendqisi2
 929 0012 02F0FE02 		and	r2, r2, #254
 930 0016 1A70     		strb	r2, [r3]
1362:Generated_Source\PSoC5/UART.c ****         CyExitCriticalSection(enableInterrupts);
 931              		.loc 1 1362 0
 932 0018 FFF7FEFF 		bl	CyExitCriticalSection
 933              	.LVL64:
 934 001c 08BD     		pop	{r3, pc}
 935              	.L103:
 936 001e 00BF     		.align	2
 937              	.L102:
 938 0020 98650040 		.word	1073767832
 939              		.cfi_endproc
 940              	.LFE24:
 941              		.size	UART_ClearTxBuffer, .-UART_ClearTxBuffer
 942              		.section	.text.UART_SendBreak,"ax",%progbits
 943              		.align	2
 944              		.global	UART_SendBreak
 945              		.thumb
 946              		.thumb_func
 947              		.type	UART_SendBreak, %function
 948              	UART_SendBreak:
 949              	.LFB25:
1363:Generated_Source\PSoC5/UART.c **** 
1364:Generated_Source\PSoC5/UART.c ****     #if (UART_TX_INTERRUPT_ENABLED)
1365:Generated_Source\PSoC5/UART.c **** 
1366:Generated_Source\PSoC5/UART.c ****         /* Protect variables that could change on interrupt. */
1367:Generated_Source\PSoC5/UART.c ****         UART_DisableTxInt();
1368:Generated_Source\PSoC5/UART.c **** 
1369:Generated_Source\PSoC5/UART.c ****         UART_txBufferRead = 0u;
ARM GAS  C:\Users\Hesham\AppData\Local\Temp\cc1wSMNs.s 			page 42


1370:Generated_Source\PSoC5/UART.c ****         UART_txBufferWrite = 0u;
1371:Generated_Source\PSoC5/UART.c **** 
1372:Generated_Source\PSoC5/UART.c ****         /* Enable Tx interrupt. */
1373:Generated_Source\PSoC5/UART.c ****         UART_EnableTxInt();
1374:Generated_Source\PSoC5/UART.c **** 
1375:Generated_Source\PSoC5/UART.c ****     #endif /* (UART_TX_INTERRUPT_ENABLED) */
1376:Generated_Source\PSoC5/UART.c ****     }
1377:Generated_Source\PSoC5/UART.c **** 
1378:Generated_Source\PSoC5/UART.c **** 
1379:Generated_Source\PSoC5/UART.c ****     /*******************************************************************************
1380:Generated_Source\PSoC5/UART.c ****     * Function Name: UART_SendBreak
1381:Generated_Source\PSoC5/UART.c ****     ********************************************************************************
1382:Generated_Source\PSoC5/UART.c ****     *
1383:Generated_Source\PSoC5/UART.c ****     * Summary:
1384:Generated_Source\PSoC5/UART.c ****     *  Transmits a break signal on the bus.
1385:Generated_Source\PSoC5/UART.c ****     *
1386:Generated_Source\PSoC5/UART.c ****     * Parameters:
1387:Generated_Source\PSoC5/UART.c ****     *  uint8 retMode:  Send Break return mode. See the following table for options.
1388:Generated_Source\PSoC5/UART.c ****     *   UART_SEND_BREAK - Initialize registers for break, send the Break
1389:Generated_Source\PSoC5/UART.c ****     *       signal and return immediately.
1390:Generated_Source\PSoC5/UART.c ****     *   UART_WAIT_FOR_COMPLETE_REINIT - Wait until break transmission is
1391:Generated_Source\PSoC5/UART.c ****     *       complete, reinitialize registers to normal transmission mode then return
1392:Generated_Source\PSoC5/UART.c ****     *   UART_REINIT - Reinitialize registers to normal transmission mode
1393:Generated_Source\PSoC5/UART.c ****     *       then return.
1394:Generated_Source\PSoC5/UART.c ****     *   UART_SEND_WAIT_REINIT - Performs both options: 
1395:Generated_Source\PSoC5/UART.c ****     *      UART_SEND_BREAK and UART_WAIT_FOR_COMPLETE_REINIT.
1396:Generated_Source\PSoC5/UART.c ****     *      This option is recommended for most cases.
1397:Generated_Source\PSoC5/UART.c ****     *
1398:Generated_Source\PSoC5/UART.c ****     * Return:
1399:Generated_Source\PSoC5/UART.c ****     *  None.
1400:Generated_Source\PSoC5/UART.c ****     *
1401:Generated_Source\PSoC5/UART.c ****     * Global Variables:
1402:Generated_Source\PSoC5/UART.c ****     *  UART_initVar - checked to identify that the component has been
1403:Generated_Source\PSoC5/UART.c ****     *     initialized.
1404:Generated_Source\PSoC5/UART.c ****     *  txPeriod - static variable, used for keeping TX period configuration.
1405:Generated_Source\PSoC5/UART.c ****     *
1406:Generated_Source\PSoC5/UART.c ****     * Reentrant:
1407:Generated_Source\PSoC5/UART.c ****     *  No.
1408:Generated_Source\PSoC5/UART.c ****     *
1409:Generated_Source\PSoC5/UART.c ****     * Theory:
1410:Generated_Source\PSoC5/UART.c ****     *  SendBreak function initializes registers to send 13-bit break signal. It is
1411:Generated_Source\PSoC5/UART.c ****     *  important to return the registers configuration to normal for continue 8-bit
1412:Generated_Source\PSoC5/UART.c ****     *  operation.
1413:Generated_Source\PSoC5/UART.c ****     *  There are 3 variants for this API usage:
1414:Generated_Source\PSoC5/UART.c ****     *  1) SendBreak(3) - function will send the Break signal and take care on the
1415:Generated_Source\PSoC5/UART.c ****     *     configuration returning. Function will block CPU until transmission
1416:Generated_Source\PSoC5/UART.c ****     *     complete.
1417:Generated_Source\PSoC5/UART.c ****     *  2) User may want to use blocking time if UART configured to the low speed
1418:Generated_Source\PSoC5/UART.c ****     *     operation
1419:Generated_Source\PSoC5/UART.c ****     *     Example for this case:
1420:Generated_Source\PSoC5/UART.c ****     *     SendBreak(0);     - initialize Break signal transmission
1421:Generated_Source\PSoC5/UART.c ****     *         Add your code here to use CPU time
1422:Generated_Source\PSoC5/UART.c ****     *     SendBreak(1);     - complete Break operation
1423:Generated_Source\PSoC5/UART.c ****     *  3) Same to 2) but user may want to initialize and use the interrupt to
1424:Generated_Source\PSoC5/UART.c ****     *     complete break operation.
1425:Generated_Source\PSoC5/UART.c ****     *     Example for this case:
1426:Generated_Source\PSoC5/UART.c ****     *     Initialize TX interrupt with "TX - On TX Complete" parameter
ARM GAS  C:\Users\Hesham\AppData\Local\Temp\cc1wSMNs.s 			page 43


1427:Generated_Source\PSoC5/UART.c ****     *     SendBreak(0);     - initialize Break signal transmission
1428:Generated_Source\PSoC5/UART.c ****     *         Add your code here to use CPU time
1429:Generated_Source\PSoC5/UART.c ****     *     When interrupt appear with UART_TX_STS_COMPLETE status:
1430:Generated_Source\PSoC5/UART.c ****     *     SendBreak(2);     - complete Break operation
1431:Generated_Source\PSoC5/UART.c ****     *
1432:Generated_Source\PSoC5/UART.c ****     * Side Effects:
1433:Generated_Source\PSoC5/UART.c ****     *  The UART_SendBreak() function initializes registers to send a
1434:Generated_Source\PSoC5/UART.c ****     *  break signal.
1435:Generated_Source\PSoC5/UART.c ****     *  Break signal length depends on the break signal bits configuration.
1436:Generated_Source\PSoC5/UART.c ****     *  The register configuration should be reinitialized before normal 8-bit
1437:Generated_Source\PSoC5/UART.c ****     *  communication can continue.
1438:Generated_Source\PSoC5/UART.c ****     *
1439:Generated_Source\PSoC5/UART.c ****     *******************************************************************************/
1440:Generated_Source\PSoC5/UART.c ****     void UART_SendBreak(uint8 retMode) 
1441:Generated_Source\PSoC5/UART.c ****     {
 950              		.loc 1 1441 0
 951              		.cfi_startproc
 952              		@ args = 0, pretend = 0, frame = 0
 953              		@ frame_needed = 0, uses_anonymous_args = 0
 954              		@ link register save eliminated.
 955              	.LVL65:
1442:Generated_Source\PSoC5/UART.c **** 
1443:Generated_Source\PSoC5/UART.c ****         /* If not Initialized then skip this function*/
1444:Generated_Source\PSoC5/UART.c ****         if(UART_initVar != 0u)
 956              		.loc 1 1444 0
 957 0000 134B     		ldr	r3, .L111
 958 0002 1B78     		ldrb	r3, [r3]	@ zero_extendqisi2
 959 0004 13B3     		cbz	r3, .L104
 960              	.LBB2:
1445:Generated_Source\PSoC5/UART.c ****         {
1446:Generated_Source\PSoC5/UART.c ****             /* Set the Counter to 13-bits and transmit a 00 byte */
1447:Generated_Source\PSoC5/UART.c ****             /* When that is done then reset the counter value back */
1448:Generated_Source\PSoC5/UART.c ****             uint8 tmpStat;
1449:Generated_Source\PSoC5/UART.c **** 
1450:Generated_Source\PSoC5/UART.c ****         #if(UART_HD_ENABLED) /* Half Duplex mode*/
1451:Generated_Source\PSoC5/UART.c **** 
1452:Generated_Source\PSoC5/UART.c ****             if( (retMode == UART_SEND_BREAK) ||
1453:Generated_Source\PSoC5/UART.c ****                 (retMode == UART_SEND_WAIT_REINIT ) )
1454:Generated_Source\PSoC5/UART.c ****             {
1455:Generated_Source\PSoC5/UART.c ****                 /* CTRL_HD_SEND_BREAK - sends break bits in HD mode */
1456:Generated_Source\PSoC5/UART.c ****                 UART_WriteControlRegister(UART_ReadControlRegister() |
1457:Generated_Source\PSoC5/UART.c ****                                                       UART_CTRL_HD_SEND_BREAK);
1458:Generated_Source\PSoC5/UART.c ****                 /* Send zeros */
1459:Generated_Source\PSoC5/UART.c ****                 UART_TXDATA_REG = 0u;
1460:Generated_Source\PSoC5/UART.c **** 
1461:Generated_Source\PSoC5/UART.c ****                 do /* Wait until transmit starts */
1462:Generated_Source\PSoC5/UART.c ****                 {
1463:Generated_Source\PSoC5/UART.c ****                     tmpStat = UART_TXSTATUS_REG;
1464:Generated_Source\PSoC5/UART.c ****                 }
1465:Generated_Source\PSoC5/UART.c ****                 while((tmpStat & UART_TX_STS_FIFO_EMPTY) != 0u);
1466:Generated_Source\PSoC5/UART.c ****             }
1467:Generated_Source\PSoC5/UART.c **** 
1468:Generated_Source\PSoC5/UART.c ****             if( (retMode == UART_WAIT_FOR_COMPLETE_REINIT) ||
1469:Generated_Source\PSoC5/UART.c ****                 (retMode == UART_SEND_WAIT_REINIT) )
1470:Generated_Source\PSoC5/UART.c ****             {
1471:Generated_Source\PSoC5/UART.c ****                 do /* Wait until transmit complete */
1472:Generated_Source\PSoC5/UART.c ****                 {
ARM GAS  C:\Users\Hesham\AppData\Local\Temp\cc1wSMNs.s 			page 44


1473:Generated_Source\PSoC5/UART.c ****                     tmpStat = UART_TXSTATUS_REG;
1474:Generated_Source\PSoC5/UART.c ****                 }
1475:Generated_Source\PSoC5/UART.c ****                 while(((uint8)~tmpStat & UART_TX_STS_COMPLETE) != 0u);
1476:Generated_Source\PSoC5/UART.c ****             }
1477:Generated_Source\PSoC5/UART.c **** 
1478:Generated_Source\PSoC5/UART.c ****             if( (retMode == UART_WAIT_FOR_COMPLETE_REINIT) ||
1479:Generated_Source\PSoC5/UART.c ****                 (retMode == UART_REINIT) ||
1480:Generated_Source\PSoC5/UART.c ****                 (retMode == UART_SEND_WAIT_REINIT) )
1481:Generated_Source\PSoC5/UART.c ****             {
1482:Generated_Source\PSoC5/UART.c ****                 UART_WriteControlRegister(UART_ReadControlRegister() &
1483:Generated_Source\PSoC5/UART.c ****                                               (uint8)~UART_CTRL_HD_SEND_BREAK);
1484:Generated_Source\PSoC5/UART.c ****             }
1485:Generated_Source\PSoC5/UART.c **** 
1486:Generated_Source\PSoC5/UART.c ****         #else /* UART_HD_ENABLED Full Duplex mode */
1487:Generated_Source\PSoC5/UART.c **** 
1488:Generated_Source\PSoC5/UART.c ****             static uint8 txPeriod;
1489:Generated_Source\PSoC5/UART.c **** 
1490:Generated_Source\PSoC5/UART.c ****             if( (retMode == UART_SEND_BREAK) ||
 961              		.loc 1 1490 0
 962 0006 08B1     		cbz	r0, .L106
 963              		.loc 1 1490 0 is_stmt 0 discriminator 1
 964 0008 0328     		cmp	r0, #3
 965 000a 0ED1     		bne	.L107
 966              	.L106:
1491:Generated_Source\PSoC5/UART.c ****                 (retMode == UART_SEND_WAIT_REINIT) )
1492:Generated_Source\PSoC5/UART.c ****             {
1493:Generated_Source\PSoC5/UART.c ****                 /* CTRL_HD_SEND_BREAK - skip to send parity bit at Break signal in Full Duplex mode
1494:Generated_Source\PSoC5/UART.c ****                 #if( (UART_PARITY_TYPE != UART__B_UART__NONE_REVB) || \
1495:Generated_Source\PSoC5/UART.c ****                                     (UART_PARITY_TYPE_SW != 0u) )
1496:Generated_Source\PSoC5/UART.c ****                     UART_WriteControlRegister(UART_ReadControlRegister() |
1497:Generated_Source\PSoC5/UART.c ****                                                           UART_CTRL_HD_SEND_BREAK);
1498:Generated_Source\PSoC5/UART.c ****                 #endif /* End UART_PARITY_TYPE != UART__B_UART__NONE_REVB  */
1499:Generated_Source\PSoC5/UART.c **** 
1500:Generated_Source\PSoC5/UART.c ****                 #if(UART_TXCLKGEN_DP)
1501:Generated_Source\PSoC5/UART.c ****                     txPeriod = UART_TXBITCLKTX_COMPLETE_REG;
 967              		.loc 1 1501 0 is_stmt 1
 968 000c 114B     		ldr	r3, .L111+4
 969 000e 1978     		ldrb	r1, [r3]	@ zero_extendqisi2
 970 0010 0F4A     		ldr	r2, .L111
 971 0012 5170     		strb	r1, [r2, #1]
1502:Generated_Source\PSoC5/UART.c ****                     UART_TXBITCLKTX_COMPLETE_REG = UART_TXBITCTR_BREAKBITS;
 972              		.loc 1 1502 0
 973 0014 6722     		movs	r2, #103
 974 0016 1A70     		strb	r2, [r3]
1503:Generated_Source\PSoC5/UART.c ****                 #else
1504:Generated_Source\PSoC5/UART.c ****                     txPeriod = UART_TXBITCTR_PERIOD_REG;
1505:Generated_Source\PSoC5/UART.c ****                     UART_TXBITCTR_PERIOD_REG = UART_TXBITCTR_BREAKBITS8X;
1506:Generated_Source\PSoC5/UART.c ****                 #endif /* End UART_TXCLKGEN_DP */
1507:Generated_Source\PSoC5/UART.c **** 
1508:Generated_Source\PSoC5/UART.c ****                 /* Send zeros */
1509:Generated_Source\PSoC5/UART.c ****                 UART_TXDATA_REG = 0u;
 975              		.loc 1 1509 0
 976 0018 0022     		movs	r2, #0
 977 001a 03F20F13 		addw	r3, r3, #271
 978 001e 1A70     		strb	r2, [r3]
 979              	.L108:
1510:Generated_Source\PSoC5/UART.c **** 
ARM GAS  C:\Users\Hesham\AppData\Local\Temp\cc1wSMNs.s 			page 45


1511:Generated_Source\PSoC5/UART.c ****                 do /* Wait until transmit starts */
1512:Generated_Source\PSoC5/UART.c ****                 {
1513:Generated_Source\PSoC5/UART.c ****                     tmpStat = UART_TXSTATUS_REG;
 980              		.loc 1 1513 0 discriminator 1
 981 0020 0D4B     		ldr	r3, .L111+8
 982 0022 1B78     		ldrb	r3, [r3]	@ zero_extendqisi2
 983              	.LVL66:
1514:Generated_Source\PSoC5/UART.c ****                 }
1515:Generated_Source\PSoC5/UART.c ****                 while((tmpStat & UART_TX_STS_FIFO_EMPTY) != 0u);
 984              		.loc 1 1515 0 discriminator 1
 985 0024 13F0020F 		tst	r3, #2
 986 0028 FAD1     		bne	.L108
 987              	.LVL67:
 988              	.L107:
1516:Generated_Source\PSoC5/UART.c ****             }
1517:Generated_Source\PSoC5/UART.c **** 
1518:Generated_Source\PSoC5/UART.c ****             if( (retMode == UART_WAIT_FOR_COMPLETE_REINIT) ||
 989              		.loc 1 1518 0
 990 002a 0128     		cmp	r0, #1
 991 002c 01D0     		beq	.L109
 992              		.loc 1 1518 0 is_stmt 0 discriminator 1
 993 002e 0328     		cmp	r0, #3
 994 0030 04D1     		bne	.L110
 995              	.L109:
1519:Generated_Source\PSoC5/UART.c ****                 (retMode == UART_SEND_WAIT_REINIT) )
1520:Generated_Source\PSoC5/UART.c ****             {
1521:Generated_Source\PSoC5/UART.c ****                 do /* Wait until transmit complete */
1522:Generated_Source\PSoC5/UART.c ****                 {
1523:Generated_Source\PSoC5/UART.c ****                     tmpStat = UART_TXSTATUS_REG;
 996              		.loc 1 1523 0 is_stmt 1 discriminator 1
 997 0032 094B     		ldr	r3, .L111+8
 998 0034 1B78     		ldrb	r3, [r3]	@ zero_extendqisi2
 999              	.LVL68:
1524:Generated_Source\PSoC5/UART.c ****                 }
1525:Generated_Source\PSoC5/UART.c ****                 while(((uint8)~tmpStat & UART_TX_STS_COMPLETE) != 0u);
 1000              		.loc 1 1525 0 discriminator 1
 1001 0036 13F0010F 		tst	r3, #1
 1002 003a FAD0     		beq	.L109
 1003              	.LVL69:
 1004              	.L110:
1526:Generated_Source\PSoC5/UART.c ****             }
1527:Generated_Source\PSoC5/UART.c **** 
1528:Generated_Source\PSoC5/UART.c ****             if( (retMode == UART_WAIT_FOR_COMPLETE_REINIT) ||
1529:Generated_Source\PSoC5/UART.c ****                 (retMode == UART_REINIT) ||
 1005              		.loc 1 1529 0
 1006 003c 0138     		subs	r0, r0, #1
 1007              	.LVL70:
 1008 003e C0B2     		uxtb	r0, r0
1528:Generated_Source\PSoC5/UART.c ****                 (retMode == UART_REINIT) ||
 1009              		.loc 1 1528 0
 1010 0040 0228     		cmp	r0, #2
 1011 0042 03D8     		bhi	.L104
1530:Generated_Source\PSoC5/UART.c ****                 (retMode == UART_SEND_WAIT_REINIT) )
1531:Generated_Source\PSoC5/UART.c ****             {
1532:Generated_Source\PSoC5/UART.c **** 
1533:Generated_Source\PSoC5/UART.c ****             #if(UART_TXCLKGEN_DP)
1534:Generated_Source\PSoC5/UART.c ****                 UART_TXBITCLKTX_COMPLETE_REG = txPeriod;
ARM GAS  C:\Users\Hesham\AppData\Local\Temp\cc1wSMNs.s 			page 46


 1012              		.loc 1 1534 0
 1013 0044 024B     		ldr	r3, .L111
 1014 0046 5A78     		ldrb	r2, [r3, #1]	@ zero_extendqisi2
 1015 0048 024B     		ldr	r3, .L111+4
 1016 004a 1A70     		strb	r2, [r3]
 1017              	.L104:
 1018 004c 7047     		bx	lr
 1019              	.L112:
 1020 004e 00BF     		.align	2
 1021              	.L111:
 1022 0050 00000000 		.word	.LANCHOR0
 1023 0054 39640040 		.word	1073767481
 1024 0058 6B650040 		.word	1073767787
 1025              	.LBE2:
 1026              		.cfi_endproc
 1027              	.LFE25:
 1028              		.size	UART_SendBreak, .-UART_SendBreak
 1029              		.section	.text.UART_SetTxAddressMode,"ax",%progbits
 1030              		.align	2
 1031              		.global	UART_SetTxAddressMode
 1032              		.thumb
 1033              		.thumb_func
 1034              		.type	UART_SetTxAddressMode, %function
 1035              	UART_SetTxAddressMode:
 1036              	.LFB26:
1535:Generated_Source\PSoC5/UART.c ****             #else
1536:Generated_Source\PSoC5/UART.c ****                 UART_TXBITCTR_PERIOD_REG = txPeriod;
1537:Generated_Source\PSoC5/UART.c ****             #endif /* End UART_TXCLKGEN_DP */
1538:Generated_Source\PSoC5/UART.c **** 
1539:Generated_Source\PSoC5/UART.c ****             #if( (UART_PARITY_TYPE != UART__B_UART__NONE_REVB) || \
1540:Generated_Source\PSoC5/UART.c ****                  (UART_PARITY_TYPE_SW != 0u) )
1541:Generated_Source\PSoC5/UART.c ****                 UART_WriteControlRegister(UART_ReadControlRegister() &
1542:Generated_Source\PSoC5/UART.c ****                                                       (uint8) ~UART_CTRL_HD_SEND_BREAK);
1543:Generated_Source\PSoC5/UART.c ****             #endif /* End UART_PARITY_TYPE != NONE */
1544:Generated_Source\PSoC5/UART.c ****             }
1545:Generated_Source\PSoC5/UART.c ****         #endif    /* End UART_HD_ENABLED */
1546:Generated_Source\PSoC5/UART.c ****         }
1547:Generated_Source\PSoC5/UART.c ****     }
1548:Generated_Source\PSoC5/UART.c **** 
1549:Generated_Source\PSoC5/UART.c **** 
1550:Generated_Source\PSoC5/UART.c ****     /*******************************************************************************
1551:Generated_Source\PSoC5/UART.c ****     * Function Name: UART_SetTxAddressMode
1552:Generated_Source\PSoC5/UART.c ****     ********************************************************************************
1553:Generated_Source\PSoC5/UART.c ****     *
1554:Generated_Source\PSoC5/UART.c ****     * Summary:
1555:Generated_Source\PSoC5/UART.c ****     *  Configures the transmitter to signal the next bytes is address or data.
1556:Generated_Source\PSoC5/UART.c ****     *
1557:Generated_Source\PSoC5/UART.c ****     * Parameters:
1558:Generated_Source\PSoC5/UART.c ****     *  addressMode: 
1559:Generated_Source\PSoC5/UART.c ****     *       UART_SET_SPACE - Configure the transmitter to send the next
1560:Generated_Source\PSoC5/UART.c ****     *                                    byte as a data.
1561:Generated_Source\PSoC5/UART.c ****     *       UART_SET_MARK  - Configure the transmitter to send the next
1562:Generated_Source\PSoC5/UART.c ****     *                                    byte as an address.
1563:Generated_Source\PSoC5/UART.c ****     *
1564:Generated_Source\PSoC5/UART.c ****     * Return:
1565:Generated_Source\PSoC5/UART.c ****     *  None.
1566:Generated_Source\PSoC5/UART.c ****     *
ARM GAS  C:\Users\Hesham\AppData\Local\Temp\cc1wSMNs.s 			page 47


1567:Generated_Source\PSoC5/UART.c ****     * Side Effects:
1568:Generated_Source\PSoC5/UART.c ****     *  This function sets and clears UART_CTRL_MARK bit in the Control
1569:Generated_Source\PSoC5/UART.c ****     *  register.
1570:Generated_Source\PSoC5/UART.c ****     *
1571:Generated_Source\PSoC5/UART.c ****     *******************************************************************************/
1572:Generated_Source\PSoC5/UART.c ****     void UART_SetTxAddressMode(uint8 addressMode) 
1573:Generated_Source\PSoC5/UART.c ****     {
 1037              		.loc 1 1573 0
 1038              		.cfi_startproc
 1039              		@ args = 0, pretend = 0, frame = 0
 1040              		@ frame_needed = 0, uses_anonymous_args = 0
 1041              	.LVL71:
 1042 0000 08B5     		push	{r3, lr}
 1043              		.cfi_def_cfa_offset 8
 1044              		.cfi_offset 3, -8
 1045              		.cfi_offset 14, -4
1574:Generated_Source\PSoC5/UART.c ****         /* Mark/Space sending enable */
1575:Generated_Source\PSoC5/UART.c ****         if(addressMode != 0u)
 1046              		.loc 1 1575 0
 1047 0002 38B1     		cbz	r0, .L114
1576:Generated_Source\PSoC5/UART.c ****         {
1577:Generated_Source\PSoC5/UART.c ****         #if( UART_CONTROL_REG_REMOVED == 0u )
1578:Generated_Source\PSoC5/UART.c ****             UART_WriteControlRegister(UART_ReadControlRegister() |
 1048              		.loc 1 1578 0
 1049 0004 FFF7FEFF 		bl	UART_ReadControlRegister
 1050              	.LVL72:
 1051 0008 40F00400 		orr	r0, r0, #4
 1052 000c C0B2     		uxtb	r0, r0
 1053 000e FFF7FEFF 		bl	UART_WriteControlRegister
 1054              	.LVL73:
 1055 0012 08BD     		pop	{r3, pc}
 1056              	.LVL74:
 1057              	.L114:
1579:Generated_Source\PSoC5/UART.c ****                                                   UART_CTRL_MARK);
1580:Generated_Source\PSoC5/UART.c ****         #endif /* End UART_CONTROL_REG_REMOVED == 0u */
1581:Generated_Source\PSoC5/UART.c ****         }
1582:Generated_Source\PSoC5/UART.c ****         else
1583:Generated_Source\PSoC5/UART.c ****         {
1584:Generated_Source\PSoC5/UART.c ****         #if( UART_CONTROL_REG_REMOVED == 0u )
1585:Generated_Source\PSoC5/UART.c ****             UART_WriteControlRegister(UART_ReadControlRegister() &
 1058              		.loc 1 1585 0
 1059 0014 FFF7FEFF 		bl	UART_ReadControlRegister
 1060              	.LVL75:
 1061 0018 00F0FB00 		and	r0, r0, #251
 1062 001c FFF7FEFF 		bl	UART_WriteControlRegister
 1063              	.LVL76:
 1064 0020 08BD     		pop	{r3, pc}
 1065              		.cfi_endproc
 1066              	.LFE26:
 1067              		.size	UART_SetTxAddressMode, .-UART_SetTxAddressMode
 1068              		.global	UART_initVar
 1069 0022 00BF     		.bss
 1070              		.set	.LANCHOR0,. + 0
 1071              		.type	UART_initVar, %object
 1072              		.size	UART_initVar, 1
 1073              	UART_initVar:
 1074 0000 00       		.space	1
ARM GAS  C:\Users\Hesham\AppData\Local\Temp\cc1wSMNs.s 			page 48


 1075              		.type	txPeriod.4991, %object
 1076              		.size	txPeriod.4991, 1
 1077              	txPeriod.4991:
 1078 0001 00       		.space	1
 1079              		.text
 1080              	.Letext0:
 1081              		.file 2 "Generated_Source\\PSoC5\\cytypes.h"
 1082              		.file 3 "Generated_Source\\PSoC5\\UART_IntClock.h"
 1083              		.file 4 "Generated_Source\\PSoC5\\CyLib.h"